
firmware.elf:     file format elf32-littlearm

Sections:
Idx Name          Size      VMA       LMA       File off  Algn
  0 .text         000030ac  00000000  00000000  00010000  2**2
                  CONTENTS, ALLOC, LOAD, READONLY, CODE
  1 .relocate     000000dc  20000000  000030ac  00020000  2**2
                  CONTENTS, ALLOC, LOAD, DATA
  2 .bss          000003cc  200000dc  00003188  000200dc  2**2
                  ALLOC
  3 .stack        00002000  200004a8  00003554  000200dc  2**0
                  ALLOC
  4 .ARM.attributes 00000028  00000000  00000000  000200dc  2**0
                  CONTENTS, READONLY
  5 .comment      00000059  00000000  00000000  00020104  2**0
                  CONTENTS, READONLY
  6 .debug_frame  000000b4  00000000  00000000  00020160  2**2
                  CONTENTS, READONLY, DEBUGGING

Disassembly of section .text:

00000000 <exception_table>:
       0:	a8 24 00 20 c5 2a 00 00 c1 2a 00 00 c1 2a 00 00     .$. .*...*...*..
	...
      2c:	c1 2a 00 00 00 00 00 00 00 00 00 00 c1 2a 00 00     .*...........*..
      3c:	c1 2a 00 00 c1 2a 00 00 c1 2a 00 00 c1 2a 00 00     .*...*...*...*..
      4c:	c1 2a 00 00 99 0b 00 00 c1 2a 00 00 c1 2a 00 00     .*.......*...*..
      5c:	1d 23 00 00 c1 2a 00 00 c1 2a 00 00 c1 2a 00 00     .#...*...*...*..
      6c:	c1 2a 00 00 c1 2a 00 00 00 00 00 00 00 00 00 00     .*...*..........
      7c:	c1 2a 00 00 c1 2a 00 00 c1 2a 00 00 c1 2a 00 00     .*...*...*...*..
      8c:	c1 2a 00 00 c1 2a 00 00 00 00 00 00 00 00 00 00     .*...*..........
      9c:	c1 2a 00 00 c1 2a 00 00 c1 2a 00 00 c1 2a 00 00     .*...*...*...*..
      ac:	c1 2a 00 00 00 00 00 00                             .*......

000000b4 <__do_global_dtors_aux>:
      b4:	b510      	push	{r4, lr}
      b6:	4c06      	ldr	r4, [pc, #24]	; (d0 <__do_global_dtors_aux+0x1c>)
      b8:	7823      	ldrb	r3, [r4, #0]
      ba:	2b00      	cmp	r3, #0
      bc:	d107      	bne.n	ce <__do_global_dtors_aux+0x1a>
      be:	4b05      	ldr	r3, [pc, #20]	; (d4 <__do_global_dtors_aux+0x20>)
      c0:	2b00      	cmp	r3, #0
      c2:	d002      	beq.n	ca <__do_global_dtors_aux+0x16>
      c4:	4804      	ldr	r0, [pc, #16]	; (d8 <__do_global_dtors_aux+0x24>)
      c6:	e000      	b.n	ca <__do_global_dtors_aux+0x16>
      c8:	bf00      	nop
      ca:	2301      	movs	r3, #1
      cc:	7023      	strb	r3, [r4, #0]
      ce:	bd10      	pop	{r4, pc}
      d0:	200000dc 	.word	0x200000dc
      d4:	00000000 	.word	0x00000000
      d8:	000030ac 	.word	0x000030ac

000000dc <frame_dummy>:
      dc:	4b08      	ldr	r3, [pc, #32]	; (100 <frame_dummy+0x24>)
      de:	b510      	push	{r4, lr}
      e0:	2b00      	cmp	r3, #0
      e2:	d003      	beq.n	ec <frame_dummy+0x10>
      e4:	4907      	ldr	r1, [pc, #28]	; (104 <frame_dummy+0x28>)
      e6:	4808      	ldr	r0, [pc, #32]	; (108 <frame_dummy+0x2c>)
      e8:	e000      	b.n	ec <frame_dummy+0x10>
      ea:	bf00      	nop
      ec:	4807      	ldr	r0, [pc, #28]	; (10c <frame_dummy+0x30>)
      ee:	6803      	ldr	r3, [r0, #0]
      f0:	2b00      	cmp	r3, #0
      f2:	d100      	bne.n	f6 <frame_dummy+0x1a>
      f4:	bd10      	pop	{r4, pc}
      f6:	4b06      	ldr	r3, [pc, #24]	; (110 <frame_dummy+0x34>)
      f8:	2b00      	cmp	r3, #0
      fa:	d0fb      	beq.n	f4 <frame_dummy+0x18>
      fc:	4798      	blx	r3
      fe:	e7f9      	b.n	f4 <frame_dummy+0x18>
     100:	00000000 	.word	0x00000000
     104:	200000e0 	.word	0x200000e0
     108:	000030ac 	.word	0x000030ac
     10c:	000030ac 	.word	0x000030ac
     110:	00000000 	.word	0x00000000

00000114 <ui_init>:
     114:	b537      	push	{r0, r1, r2, r4, r5, lr}
     116:	2300      	movs	r3, #0
     118:	2201      	movs	r2, #1
     11a:	ac01      	add	r4, sp, #4
     11c:	4d07      	ldr	r5, [pc, #28]	; (13c <ui_init+0x28>)
     11e:	0021      	movs	r1, r4
     120:	200e      	movs	r0, #14
     122:	7023      	strb	r3, [r4, #0]
     124:	7062      	strb	r2, [r4, #1]
     126:	70a3      	strb	r3, [r4, #2]
     128:	47a8      	blx	r5
     12a:	0021      	movs	r1, r4
     12c:	200f      	movs	r0, #15
     12e:	47a8      	blx	r5
     130:	2280      	movs	r2, #128	; 0x80
     132:	4b03      	ldr	r3, [pc, #12]	; (140 <ui_init+0x2c>)
     134:	00d2      	lsls	r2, r2, #3
     136:	619a      	str	r2, [r3, #24]
     138:	bd37      	pop	{r0, r1, r2, r4, r5, pc}
     13a:	46c0      	nop			; (mov r8, r8)
     13c:	00000cf1 	.word	0x00000cf1
     140:	41004400 	.word	0x41004400

00000144 <ui_powerdown>:
     144:	2280      	movs	r2, #128	; 0x80
     146:	4b02      	ldr	r3, [pc, #8]	; (150 <ui_powerdown+0xc>)
     148:	00d2      	lsls	r2, r2, #3
     14a:	619a      	str	r2, [r3, #24]
     14c:	4770      	bx	lr
     14e:	46c0      	nop			; (mov r8, r8)
     150:	41004400 	.word	0x41004400

00000154 <ui_wakeup_enable>:
     154:	4770      	bx	lr

00000156 <ui_wakeup_disable>:
     156:	4770      	bx	lr

00000158 <ui_wakeup>:
     158:	2280      	movs	r2, #128	; 0x80
     15a:	4b02      	ldr	r3, [pc, #8]	; (164 <ui_wakeup+0xc>)
     15c:	00d2      	lsls	r2, r2, #3
     15e:	615a      	str	r2, [r3, #20]
     160:	4770      	bx	lr
     162:	46c0      	nop			; (mov r8, r8)
     164:	41004400 	.word	0x41004400

00000168 <ui_process>:
     168:	2280      	movs	r2, #128	; 0x80
     16a:	b570      	push	{r4, r5, r6, lr}
     16c:	4c13      	ldr	r4, [pc, #76]	; (1bc <ui_process+0x54>)
     16e:	01d2      	lsls	r2, r2, #7
     170:	6a23      	ldr	r3, [r4, #32]
     172:	4013      	ands	r3, r2
     174:	425a      	negs	r2, r3
     176:	415a      	adcs	r2, r3
     178:	4911      	ldr	r1, [pc, #68]	; (1c0 <ui_process+0x58>)
     17a:	b2d2      	uxtb	r2, r2
     17c:	780d      	ldrb	r5, [r1, #0]
     17e:	4295      	cmp	r5, r2
     180:	d005      	beq.n	18e <ui_process+0x26>
     182:	700a      	strb	r2, [r1, #0]
     184:	2008      	movs	r0, #8
     186:	2b00      	cmp	r3, #0
     188:	d113      	bne.n	1b2 <ui_process+0x4a>
     18a:	4b0e      	ldr	r3, [pc, #56]	; (1c4 <ui_process+0x5c>)
     18c:	4798      	blx	r3
     18e:	2280      	movs	r2, #128	; 0x80
     190:	6a23      	ldr	r3, [r4, #32]
     192:	0212      	lsls	r2, r2, #8
     194:	4013      	ands	r3, r2
     196:	425a      	negs	r2, r3
     198:	415a      	adcs	r2, r3
     19a:	490b      	ldr	r1, [pc, #44]	; (1c8 <ui_process+0x60>)
     19c:	b2d2      	uxtb	r2, r2
     19e:	7808      	ldrb	r0, [r1, #0]
     1a0:	4290      	cmp	r0, r2
     1a2:	d005      	beq.n	1b0 <ui_process+0x48>
     1a4:	700a      	strb	r2, [r1, #0]
     1a6:	2015      	movs	r0, #21
     1a8:	2b00      	cmp	r3, #0
     1aa:	d104      	bne.n	1b6 <ui_process+0x4e>
     1ac:	4b05      	ldr	r3, [pc, #20]	; (1c4 <ui_process+0x5c>)
     1ae:	4798      	blx	r3
     1b0:	bd70      	pop	{r4, r5, r6, pc}
     1b2:	4b06      	ldr	r3, [pc, #24]	; (1cc <ui_process+0x64>)
     1b4:	e7ea      	b.n	18c <ui_process+0x24>
     1b6:	4b05      	ldr	r3, [pc, #20]	; (1cc <ui_process+0x64>)
     1b8:	e7f9      	b.n	1ae <ui_process+0x46>
     1ba:	46c0      	nop			; (mov r8, r8)
     1bc:	41004400 	.word	0x41004400
     1c0:	200000f8 	.word	0x200000f8
     1c4:	000003a5 	.word	0x000003a5
     1c8:	200000f9 	.word	0x200000f9
     1cc:	00000341 	.word	0x00000341

000001d0 <ui_kbd_led>:
     1d0:	4770      	bx	lr
	...

000001d4 <cpu_irq_save>:
     1d4:	b082      	sub	sp, #8
     1d6:	f3ef 8310 	mrs	r3, PRIMASK
     1da:	425a      	negs	r2, r3
     1dc:	4153      	adcs	r3, r2
     1de:	9301      	str	r3, [sp, #4]
     1e0:	b672      	cpsid	i
     1e2:	f3bf 8f5f 	dmb	sy
     1e6:	2200      	movs	r2, #0
     1e8:	4b02      	ldr	r3, [pc, #8]	; (1f4 <cpu_irq_save+0x20>)
     1ea:	701a      	strb	r2, [r3, #0]
     1ec:	9801      	ldr	r0, [sp, #4]
     1ee:	b002      	add	sp, #8
     1f0:	4770      	bx	lr
     1f2:	46c0      	nop			; (mov r8, r8)
     1f4:	200000d7 	.word	0x200000d7

000001f8 <udi_hid_kbd_getsetting>:
     1f8:	2000      	movs	r0, #0
     1fa:	4770      	bx	lr

000001fc <udi_hid_kbd_enable>:
     1fc:	b510      	push	{r4, lr}
     1fe:	2400      	movs	r4, #0
     200:	4b07      	ldr	r3, [pc, #28]	; (220 <udi_hid_kbd_enable+0x24>)
     202:	2208      	movs	r2, #8
     204:	701c      	strb	r4, [r3, #0]
     206:	4b07      	ldr	r3, [pc, #28]	; (224 <udi_hid_kbd_enable+0x28>)
     208:	0021      	movs	r1, r4
     20a:	701c      	strb	r4, [r3, #0]
     20c:	4b06      	ldr	r3, [pc, #24]	; (228 <udi_hid_kbd_enable+0x2c>)
     20e:	4807      	ldr	r0, [pc, #28]	; (22c <udi_hid_kbd_enable+0x30>)
     210:	701c      	strb	r4, [r3, #0]
     212:	4b07      	ldr	r3, [pc, #28]	; (230 <udi_hid_kbd_enable+0x34>)
     214:	4798      	blx	r3
     216:	4b07      	ldr	r3, [pc, #28]	; (234 <udi_hid_kbd_enable+0x38>)
     218:	701c      	strb	r4, [r3, #0]
     21a:	4b07      	ldr	r3, [pc, #28]	; (238 <udi_hid_kbd_enable+0x3c>)
     21c:	4798      	blx	r3
     21e:	bd10      	pop	{r4, pc}
     220:	20000100 	.word	0x20000100
     224:	200000fc 	.word	0x200000fc
     228:	200000fa 	.word	0x200000fa
     22c:	20000101 	.word	0x20000101
     230:	0000306b 	.word	0x0000306b
     234:	200000fb 	.word	0x200000fb
     238:	00002ca5 	.word	0x00002ca5

0000023c <udi_hid_kbd_disable>:
     23c:	b510      	push	{r4, lr}
     23e:	4b01      	ldr	r3, [pc, #4]	; (244 <udi_hid_kbd_disable+0x8>)
     240:	4798      	blx	r3
     242:	bd10      	pop	{r4, pc}
     244:	00002cb1 	.word	0x00002cb1

00000248 <udi_hid_kbd_setup>:
     248:	b510      	push	{r4, lr}
     24a:	4b03      	ldr	r3, [pc, #12]	; (258 <udi_hid_kbd_setup+0x10>)
     24c:	4a03      	ldr	r2, [pc, #12]	; (25c <udi_hid_kbd_setup+0x14>)
     24e:	4904      	ldr	r1, [pc, #16]	; (260 <udi_hid_kbd_setup+0x18>)
     250:	4c04      	ldr	r4, [pc, #16]	; (264 <udi_hid_kbd_setup+0x1c>)
     252:	4805      	ldr	r0, [pc, #20]	; (268 <udi_hid_kbd_setup+0x20>)
     254:	47a0      	blx	r4
     256:	bd10      	pop	{r4, pc}
     258:	00000299 	.word	0x00000299
     25c:	20000014 	.word	0x20000014
     260:	200000fc 	.word	0x200000fc
     264:	00000401 	.word	0x00000401
     268:	20000100 	.word	0x20000100

0000026c <udi_hid_kbd_setreport_valid>:
     26c:	b510      	push	{r4, lr}
     26e:	4b02      	ldr	r3, [pc, #8]	; (278 <udi_hid_kbd_setreport_valid+0xc>)
     270:	7818      	ldrb	r0, [r3, #0]
     272:	4b02      	ldr	r3, [pc, #8]	; (27c <udi_hid_kbd_setreport_valid+0x10>)
     274:	4798      	blx	r3
     276:	bd10      	pop	{r4, pc}
     278:	2000010c 	.word	0x2000010c
     27c:	000001d1 	.word	0x000001d1

00000280 <cpu_irq_restore>:
     280:	2800      	cmp	r0, #0
     282:	d005      	beq.n	290 <cpu_irq_restore+0x10>
     284:	2201      	movs	r2, #1
     286:	4b03      	ldr	r3, [pc, #12]	; (294 <cpu_irq_restore+0x14>)
     288:	701a      	strb	r2, [r3, #0]
     28a:	f3bf 8f5f 	dmb	sy
     28e:	b662      	cpsie	i
     290:	4770      	bx	lr
     292:	46c0      	nop			; (mov r8, r8)
     294:	200000d7 	.word	0x200000d7

00000298 <udi_hid_kbd_setreport>:
     298:	4b09      	ldr	r3, [pc, #36]	; (2c0 <udi_hid_kbd_setreport+0x28>)
     29a:	2000      	movs	r0, #0
     29c:	885a      	ldrh	r2, [r3, #2]
     29e:	0a11      	lsrs	r1, r2, #8
     2a0:	2902      	cmp	r1, #2
     2a2:	d10b      	bne.n	2bc <udi_hid_kbd_setreport+0x24>
     2a4:	b2d2      	uxtb	r2, r2
     2a6:	4282      	cmp	r2, r0
     2a8:	d108      	bne.n	2bc <udi_hid_kbd_setreport+0x24>
     2aa:	88da      	ldrh	r2, [r3, #6]
     2ac:	2a01      	cmp	r2, #1
     2ae:	d105      	bne.n	2bc <udi_hid_kbd_setreport+0x24>
     2b0:	0010      	movs	r0, r2
     2b2:	4904      	ldr	r1, [pc, #16]	; (2c4 <udi_hid_kbd_setreport+0x2c>)
     2b4:	819a      	strh	r2, [r3, #12]
     2b6:	6099      	str	r1, [r3, #8]
     2b8:	4903      	ldr	r1, [pc, #12]	; (2c8 <udi_hid_kbd_setreport+0x30>)
     2ba:	6119      	str	r1, [r3, #16]
     2bc:	4770      	bx	lr
     2be:	46c0      	nop			; (mov r8, r8)
     2c0:	20000388 	.word	0x20000388
     2c4:	2000010c 	.word	0x2000010c
     2c8:	0000026d 	.word	0x0000026d

000002cc <udi_hid_kbd_send_report>:
     2cc:	b573      	push	{r0, r1, r4, r5, r6, lr}
     2ce:	2400      	movs	r4, #0
     2d0:	4d0b      	ldr	r5, [pc, #44]	; (300 <udi_hid_kbd_send_report+0x34>)
     2d2:	782b      	ldrb	r3, [r5, #0]
     2d4:	42a3      	cmp	r3, r4
     2d6:	d111      	bne.n	2fc <udi_hid_kbd_send_report+0x30>
     2d8:	4e0a      	ldr	r6, [pc, #40]	; (304 <udi_hid_kbd_send_report+0x38>)
     2da:	2208      	movs	r2, #8
     2dc:	490a      	ldr	r1, [pc, #40]	; (308 <udi_hid_kbd_send_report+0x3c>)
     2de:	4b0b      	ldr	r3, [pc, #44]	; (30c <udi_hid_kbd_send_report+0x40>)
     2e0:	0030      	movs	r0, r6
     2e2:	4798      	blx	r3
     2e4:	4b0a      	ldr	r3, [pc, #40]	; (310 <udi_hid_kbd_send_report+0x44>)
     2e6:	0021      	movs	r1, r4
     2e8:	701c      	strb	r4, [r3, #0]
     2ea:	4b0a      	ldr	r3, [pc, #40]	; (314 <udi_hid_kbd_send_report+0x48>)
     2ec:	4c0a      	ldr	r4, [pc, #40]	; (318 <udi_hid_kbd_send_report+0x4c>)
     2ee:	9300      	str	r3, [sp, #0]
     2f0:	0032      	movs	r2, r6
     2f2:	2308      	movs	r3, #8
     2f4:	2081      	movs	r0, #129	; 0x81
     2f6:	47a0      	blx	r4
     2f8:	0004      	movs	r4, r0
     2fa:	7028      	strb	r0, [r5, #0]
     2fc:	0020      	movs	r0, r4
     2fe:	bd76      	pop	{r1, r2, r4, r5, r6, pc}
     300:	200000fa 	.word	0x200000fa
     304:	20000110 	.word	0x20000110
     308:	20000101 	.word	0x20000101
     30c:	00003059 	.word	0x00003059
     310:	200000fb 	.word	0x200000fb
     314:	0000031d 	.word	0x0000031d
     318:	00001ad9 	.word	0x00001ad9

0000031c <udi_hid_kbd_report_sent>:
     31c:	2200      	movs	r2, #0
     31e:	b510      	push	{r4, lr}
     320:	4b04      	ldr	r3, [pc, #16]	; (334 <udi_hid_kbd_report_sent+0x18>)
     322:	701a      	strb	r2, [r3, #0]
     324:	4b04      	ldr	r3, [pc, #16]	; (338 <udi_hid_kbd_report_sent+0x1c>)
     326:	781b      	ldrb	r3, [r3, #0]
     328:	4293      	cmp	r3, r2
     32a:	d001      	beq.n	330 <udi_hid_kbd_report_sent+0x14>
     32c:	4b03      	ldr	r3, [pc, #12]	; (33c <udi_hid_kbd_report_sent+0x20>)
     32e:	4798      	blx	r3
     330:	bd10      	pop	{r4, pc}
     332:	46c0      	nop			; (mov r8, r8)
     334:	200000fa 	.word	0x200000fa
     338:	200000fb 	.word	0x200000fb
     33c:	000002cd 	.word	0x000002cd

00000340 <udi_hid_kbd_up>:
     340:	b570      	push	{r4, r5, r6, lr}
     342:	4b13      	ldr	r3, [pc, #76]	; (390 <udi_hid_kbd_up+0x50>)
     344:	0005      	movs	r5, r0
     346:	4798      	blx	r3
     348:	2302      	movs	r3, #2
     34a:	0004      	movs	r4, r0
     34c:	4a11      	ldr	r2, [pc, #68]	; (394 <udi_hid_kbd_up+0x54>)
     34e:	1c91      	adds	r1, r2, #2
     350:	7808      	ldrb	r0, [r1, #0]
     352:	2800      	cmp	r0, #0
     354:	d104      	bne.n	360 <udi_hid_kbd_up+0x20>
     356:	0020      	movs	r0, r4
     358:	4b0f      	ldr	r3, [pc, #60]	; (398 <udi_hid_kbd_up+0x58>)
     35a:	4798      	blx	r3
     35c:	2001      	movs	r0, #1
     35e:	bd70      	pop	{r4, r5, r6, pc}
     360:	42a8      	cmp	r0, r5
     362:	d009      	beq.n	378 <udi_hid_kbd_up+0x38>
     364:	3301      	adds	r3, #1
     366:	b2db      	uxtb	r3, r3
     368:	3101      	adds	r1, #1
     36a:	2b08      	cmp	r3, #8
     36c:	d1f0      	bne.n	350 <udi_hid_kbd_up+0x10>
     36e:	e7f2      	b.n	356 <udi_hid_kbd_up+0x16>
     370:	18d1      	adds	r1, r2, r3
     372:	7849      	ldrb	r1, [r1, #1]
     374:	54d1      	strb	r1, [r2, r3]
     376:	3301      	adds	r3, #1
     378:	b2d9      	uxtb	r1, r3
     37a:	2906      	cmp	r1, #6
     37c:	d9f8      	bls.n	370 <udi_hid_kbd_up+0x30>
     37e:	2300      	movs	r3, #0
     380:	71d3      	strb	r3, [r2, #7]
     382:	2201      	movs	r2, #1
     384:	4b05      	ldr	r3, [pc, #20]	; (39c <udi_hid_kbd_up+0x5c>)
     386:	701a      	strb	r2, [r3, #0]
     388:	4b05      	ldr	r3, [pc, #20]	; (3a0 <udi_hid_kbd_up+0x60>)
     38a:	4798      	blx	r3
     38c:	e7e3      	b.n	356 <udi_hid_kbd_up+0x16>
     38e:	46c0      	nop			; (mov r8, r8)
     390:	000001d5 	.word	0x000001d5
     394:	20000101 	.word	0x20000101
     398:	00000281 	.word	0x00000281
     39c:	200000fb 	.word	0x200000fb
     3a0:	000002cd 	.word	0x000002cd

000003a4 <udi_hid_kbd_down>:
     3a4:	b570      	push	{r4, r5, r6, lr}
     3a6:	4b11      	ldr	r3, [pc, #68]	; (3ec <udi_hid_kbd_down+0x48>)
     3a8:	0004      	movs	r4, r0
     3aa:	4798      	blx	r3
     3ac:	2302      	movs	r3, #2
     3ae:	0005      	movs	r5, r0
     3b0:	4a0f      	ldr	r2, [pc, #60]	; (3f0 <udi_hid_kbd_down+0x4c>)
     3b2:	5c99      	ldrb	r1, [r3, r2]
     3b4:	2900      	cmp	r1, #0
     3b6:	d00e      	beq.n	3d6 <udi_hid_kbd_down+0x32>
     3b8:	42a1      	cmp	r1, r4
     3ba:	d104      	bne.n	3c6 <udi_hid_kbd_down+0x22>
     3bc:	0028      	movs	r0, r5
     3be:	4b0d      	ldr	r3, [pc, #52]	; (3f4 <udi_hid_kbd_down+0x50>)
     3c0:	4798      	blx	r3
     3c2:	2001      	movs	r0, #1
     3c4:	bd70      	pop	{r4, r5, r6, pc}
     3c6:	3301      	adds	r3, #1
     3c8:	2b08      	cmp	r3, #8
     3ca:	d1f2      	bne.n	3b2 <udi_hid_kbd_down+0xe>
     3cc:	0028      	movs	r0, r5
     3ce:	4b09      	ldr	r3, [pc, #36]	; (3f4 <udi_hid_kbd_down+0x50>)
     3d0:	4798      	blx	r3
     3d2:	2000      	movs	r0, #0
     3d4:	e7f6      	b.n	3c4 <udi_hid_kbd_down+0x20>
     3d6:	54d4      	strb	r4, [r2, r3]
     3d8:	2401      	movs	r4, #1
     3da:	4b07      	ldr	r3, [pc, #28]	; (3f8 <udi_hid_kbd_down+0x54>)
     3dc:	701c      	strb	r4, [r3, #0]
     3de:	4b07      	ldr	r3, [pc, #28]	; (3fc <udi_hid_kbd_down+0x58>)
     3e0:	4798      	blx	r3
     3e2:	0028      	movs	r0, r5
     3e4:	4b03      	ldr	r3, [pc, #12]	; (3f4 <udi_hid_kbd_down+0x50>)
     3e6:	4798      	blx	r3
     3e8:	0020      	movs	r0, r4
     3ea:	e7eb      	b.n	3c4 <udi_hid_kbd_down+0x20>
     3ec:	000001d5 	.word	0x000001d5
     3f0:	20000101 	.word	0x20000101
     3f4:	00000281 	.word	0x00000281
     3f8:	200000fb 	.word	0x200000fb
     3fc:	000002cd 	.word	0x000002cd

00000400 <udi_hid_setup>:
     400:	b5f8      	push	{r3, r4, r5, r6, r7, lr}
     402:	2660      	movs	r6, #96	; 0x60
     404:	4c2b      	ldr	r4, [pc, #172]	; (4b4 <udi_hid_setup+0xb4>)
     406:	0015      	movs	r5, r2
     408:	7822      	ldrb	r2, [r4, #0]
     40a:	b257      	sxtb	r7, r2
     40c:	4032      	ands	r2, r6
     40e:	2f00      	cmp	r7, #0
     410:	da3c      	bge.n	48c <udi_hid_setup+0x8c>
     412:	2a00      	cmp	r2, #0
     414:	d129      	bne.n	46a <udi_hid_setup+0x6a>
     416:	7863      	ldrb	r3, [r4, #1]
     418:	2b06      	cmp	r3, #6
     41a:	d106      	bne.n	42a <udi_hid_setup+0x2a>
     41c:	4b26      	ldr	r3, [pc, #152]	; (4b8 <udi_hid_setup+0xb8>)
     41e:	4798      	blx	r3
     420:	0002      	movs	r2, r0
     422:	3209      	adds	r2, #9
     424:	7853      	ldrb	r3, [r2, #1]
     426:	2b21      	cmp	r3, #33	; 0x21
     428:	d001      	beq.n	42e <udi_hid_setup+0x2e>
     42a:	2000      	movs	r0, #0
     42c:	e02b      	b.n	486 <udi_hid_setup+0x86>
     42e:	8863      	ldrh	r3, [r4, #2]
     430:	0a1b      	lsrs	r3, r3, #8
     432:	b2d9      	uxtb	r1, r3
     434:	2b21      	cmp	r3, #33	; 0x21
     436:	d109      	bne.n	44c <udi_hid_setup+0x4c>
     438:	60a2      	str	r2, [r4, #8]
     43a:	7a41      	ldrb	r1, [r0, #9]
     43c:	88e2      	ldrh	r2, [r4, #6]
     43e:	1c0b      	adds	r3, r1, #0
     440:	4291      	cmp	r1, r2
     442:	d900      	bls.n	446 <udi_hid_setup+0x46>
     444:	1c13      	adds	r3, r2, #0
     446:	81a3      	strh	r3, [r4, #12]
     448:	2001      	movs	r0, #1
     44a:	e01c      	b.n	486 <udi_hid_setup+0x86>
     44c:	7993      	ldrb	r3, [r2, #6]
     44e:	428b      	cmp	r3, r1
     450:	d1eb      	bne.n	42a <udi_hid_setup+0x2a>
     452:	60a5      	str	r5, [r4, #8]
     454:	7a13      	ldrb	r3, [r2, #8]
     456:	79d1      	ldrb	r1, [r2, #7]
     458:	021b      	lsls	r3, r3, #8
     45a:	430b      	orrs	r3, r1
     45c:	88e1      	ldrh	r1, [r4, #6]
     45e:	1c1a      	adds	r2, r3, #0
     460:	428b      	cmp	r3, r1
     462:	d900      	bls.n	466 <udi_hid_setup+0x66>
     464:	1c0a      	adds	r2, r1, #0
     466:	81a2      	strh	r2, [r4, #12]
     468:	e7ee      	b.n	448 <udi_hid_setup+0x48>
     46a:	2a20      	cmp	r2, #32
     46c:	d1dd      	bne.n	42a <udi_hid_setup+0x2a>
     46e:	7862      	ldrb	r2, [r4, #1]
     470:	2a02      	cmp	r2, #2
     472:	d005      	beq.n	480 <udi_hid_setup+0x80>
     474:	2a03      	cmp	r2, #3
     476:	d007      	beq.n	488 <udi_hid_setup+0x88>
     478:	2a01      	cmp	r2, #1
     47a:	d1d6      	bne.n	42a <udi_hid_setup+0x2a>
     47c:	4798      	blx	r3
     47e:	e002      	b.n	486 <udi_hid_setup+0x86>
     480:	60a0      	str	r0, [r4, #8]
     482:	2001      	movs	r0, #1
     484:	81a0      	strh	r0, [r4, #12]
     486:	bdf8      	pop	{r3, r4, r5, r6, r7, pc}
     488:	60a1      	str	r1, [r4, #8]
     48a:	e7fa      	b.n	482 <udi_hid_setup+0x82>
     48c:	2a20      	cmp	r2, #32
     48e:	d1cc      	bne.n	42a <udi_hid_setup+0x2a>
     490:	7862      	ldrb	r2, [r4, #1]
     492:	2a0a      	cmp	r2, #10
     494:	d004      	beq.n	4a0 <udi_hid_setup+0xa0>
     496:	2a0b      	cmp	r2, #11
     498:	d006      	beq.n	4a8 <udi_hid_setup+0xa8>
     49a:	2a09      	cmp	r2, #9
     49c:	d1c5      	bne.n	42a <udi_hid_setup+0x2a>
     49e:	e7ed      	b.n	47c <udi_hid_setup+0x7c>
     4a0:	8863      	ldrh	r3, [r4, #2]
     4a2:	0a1b      	lsrs	r3, r3, #8
     4a4:	7003      	strb	r3, [r0, #0]
     4a6:	e7cf      	b.n	448 <udi_hid_setup+0x48>
     4a8:	88e3      	ldrh	r3, [r4, #6]
     4aa:	2b00      	cmp	r3, #0
     4ac:	d1bd      	bne.n	42a <udi_hid_setup+0x2a>
     4ae:	8863      	ldrh	r3, [r4, #2]
     4b0:	700b      	strb	r3, [r1, #0]
     4b2:	e7c9      	b.n	448 <udi_hid_setup+0x48>
     4b4:	20000388 	.word	0x20000388
     4b8:	0000061d 	.word	0x0000061d

000004bc <udc_valid_address>:
     4bc:	b510      	push	{r4, lr}
     4be:	4b03      	ldr	r3, [pc, #12]	; (4cc <udc_valid_address+0x10>)
     4c0:	8858      	ldrh	r0, [r3, #2]
     4c2:	237f      	movs	r3, #127	; 0x7f
     4c4:	4018      	ands	r0, r3
     4c6:	4b02      	ldr	r3, [pc, #8]	; (4d0 <udc_valid_address+0x14>)
     4c8:	4798      	blx	r3
     4ca:	bd10      	pop	{r4, pc}
     4cc:	20000388 	.word	0x20000388
     4d0:	00001c51 	.word	0x00001c51

000004d4 <udc_update_iface_desc>:
     4d4:	b5f0      	push	{r4, r5, r6, r7, lr}
     4d6:	4b16      	ldr	r3, [pc, #88]	; (530 <udc_update_iface_desc+0x5c>)
     4d8:	781b      	ldrb	r3, [r3, #0]
     4da:	2b00      	cmp	r3, #0
     4dc:	d101      	bne.n	4e2 <udc_update_iface_desc+0xe>
     4de:	2000      	movs	r0, #0
     4e0:	bdf0      	pop	{r4, r5, r6, r7, pc}
     4e2:	4b14      	ldr	r3, [pc, #80]	; (534 <udc_update_iface_desc+0x60>)
     4e4:	681b      	ldr	r3, [r3, #0]
     4e6:	681b      	ldr	r3, [r3, #0]
     4e8:	791a      	ldrb	r2, [r3, #4]
     4ea:	4282      	cmp	r2, r0
     4ec:	d9f7      	bls.n	4de <udc_update_iface_desc+0xa>
     4ee:	4c12      	ldr	r4, [pc, #72]	; (538 <udc_update_iface_desc+0x64>)
     4f0:	2601      	movs	r6, #1
     4f2:	6023      	str	r3, [r4, #0]
     4f4:	78da      	ldrb	r2, [r3, #3]
     4f6:	789d      	ldrb	r5, [r3, #2]
     4f8:	0212      	lsls	r2, r2, #8
     4fa:	432a      	orrs	r2, r5
     4fc:	2500      	movs	r5, #0
     4fe:	189a      	adds	r2, r3, r2
     500:	429a      	cmp	r2, r3
     502:	d803      	bhi.n	50c <udc_update_iface_desc+0x38>
     504:	2d00      	cmp	r5, #0
     506:	d0ea      	beq.n	4de <udc_update_iface_desc+0xa>
     508:	6023      	str	r3, [r4, #0]
     50a:	e7e8      	b.n	4de <udc_update_iface_desc+0xa>
     50c:	785f      	ldrb	r7, [r3, #1]
     50e:	2f04      	cmp	r7, #4
     510:	d10a      	bne.n	528 <udc_update_iface_desc+0x54>
     512:	789f      	ldrb	r7, [r3, #2]
     514:	4287      	cmp	r7, r0
     516:	d107      	bne.n	528 <udc_update_iface_desc+0x54>
     518:	78df      	ldrb	r7, [r3, #3]
     51a:	428f      	cmp	r7, r1
     51c:	d104      	bne.n	528 <udc_update_iface_desc+0x54>
     51e:	2d00      	cmp	r5, #0
     520:	d000      	beq.n	524 <udc_update_iface_desc+0x50>
     522:	6023      	str	r3, [r4, #0]
     524:	2001      	movs	r0, #1
     526:	e7db      	b.n	4e0 <udc_update_iface_desc+0xc>
     528:	781d      	ldrb	r5, [r3, #0]
     52a:	195b      	adds	r3, r3, r5
     52c:	0035      	movs	r5, r6
     52e:	e7e7      	b.n	500 <udc_update_iface_desc+0x2c>
     530:	20000120 	.word	0x20000120
     534:	20000124 	.word	0x20000124
     538:	20000128 	.word	0x20000128

0000053c <udc_next_desc_in_iface.constprop.3>:
     53c:	4b09      	ldr	r3, [pc, #36]	; (564 <udc_next_desc_in_iface.constprop.3+0x28>)
     53e:	681b      	ldr	r3, [r3, #0]
     540:	681b      	ldr	r3, [r3, #0]
     542:	78da      	ldrb	r2, [r3, #3]
     544:	7899      	ldrb	r1, [r3, #2]
     546:	0212      	lsls	r2, r2, #8
     548:	430a      	orrs	r2, r1
     54a:	189b      	adds	r3, r3, r2
     54c:	7802      	ldrb	r2, [r0, #0]
     54e:	1880      	adds	r0, r0, r2
     550:	4298      	cmp	r0, r3
     552:	d301      	bcc.n	558 <udc_next_desc_in_iface.constprop.3+0x1c>
     554:	2000      	movs	r0, #0
     556:	e004      	b.n	562 <udc_next_desc_in_iface.constprop.3+0x26>
     558:	7842      	ldrb	r2, [r0, #1]
     55a:	2a04      	cmp	r2, #4
     55c:	d0fa      	beq.n	554 <udc_next_desc_in_iface.constprop.3+0x18>
     55e:	2a05      	cmp	r2, #5
     560:	d1f4      	bne.n	54c <udc_next_desc_in_iface.constprop.3+0x10>
     562:	4770      	bx	lr
     564:	20000124 	.word	0x20000124

00000568 <udc_iface_enable>:
     568:	b570      	push	{r4, r5, r6, lr}
     56a:	4b10      	ldr	r3, [pc, #64]	; (5ac <udc_iface_enable+0x44>)
     56c:	0005      	movs	r5, r0
     56e:	4798      	blx	r3
     570:	2800      	cmp	r0, #0
     572:	d101      	bne.n	578 <udc_iface_enable+0x10>
     574:	2000      	movs	r0, #0
     576:	bd70      	pop	{r4, r5, r6, pc}
     578:	4b0d      	ldr	r3, [pc, #52]	; (5b0 <udc_iface_enable+0x48>)
     57a:	681c      	ldr	r4, [r3, #0]
     57c:	0020      	movs	r0, r4
     57e:	4b0d      	ldr	r3, [pc, #52]	; (5b4 <udc_iface_enable+0x4c>)
     580:	4798      	blx	r3
     582:	1e04      	subs	r4, r0, #0
     584:	d00a      	beq.n	59c <udc_iface_enable+0x34>
     586:	7942      	ldrb	r2, [r0, #5]
     588:	7903      	ldrb	r3, [r0, #4]
     58a:	0212      	lsls	r2, r2, #8
     58c:	431a      	orrs	r2, r3
     58e:	78c1      	ldrb	r1, [r0, #3]
     590:	4b09      	ldr	r3, [pc, #36]	; (5b8 <udc_iface_enable+0x50>)
     592:	7880      	ldrb	r0, [r0, #2]
     594:	4798      	blx	r3
     596:	2800      	cmp	r0, #0
     598:	d1f0      	bne.n	57c <udc_iface_enable+0x14>
     59a:	e7eb      	b.n	574 <udc_iface_enable+0xc>
     59c:	4b07      	ldr	r3, [pc, #28]	; (5bc <udc_iface_enable+0x54>)
     59e:	00ad      	lsls	r5, r5, #2
     5a0:	681b      	ldr	r3, [r3, #0]
     5a2:	685b      	ldr	r3, [r3, #4]
     5a4:	58eb      	ldr	r3, [r5, r3]
     5a6:	681b      	ldr	r3, [r3, #0]
     5a8:	4798      	blx	r3
     5aa:	e7e4      	b.n	576 <udc_iface_enable+0xe>
     5ac:	000004d5 	.word	0x000004d5
     5b0:	20000128 	.word	0x20000128
     5b4:	0000053d 	.word	0x0000053d
     5b8:	000018bd 	.word	0x000018bd
     5bc:	20000124 	.word	0x20000124

000005c0 <udc_iface_disable>:
     5c0:	b570      	push	{r4, r5, r6, lr}
     5c2:	2100      	movs	r1, #0
     5c4:	4d10      	ldr	r5, [pc, #64]	; (608 <udc_iface_disable+0x48>)
     5c6:	0004      	movs	r4, r0
     5c8:	47a8      	blx	r5
     5ca:	2800      	cmp	r0, #0
     5cc:	d102      	bne.n	5d4 <udc_iface_disable+0x14>
     5ce:	2500      	movs	r5, #0
     5d0:	0028      	movs	r0, r5
     5d2:	bd70      	pop	{r4, r5, r6, pc}
     5d4:	4b0d      	ldr	r3, [pc, #52]	; (60c <udc_iface_disable+0x4c>)
     5d6:	00a2      	lsls	r2, r4, #2
     5d8:	681b      	ldr	r3, [r3, #0]
     5da:	685b      	ldr	r3, [r3, #4]
     5dc:	58d6      	ldr	r6, [r2, r3]
     5de:	68f3      	ldr	r3, [r6, #12]
     5e0:	4798      	blx	r3
     5e2:	0001      	movs	r1, r0
     5e4:	0020      	movs	r0, r4
     5e6:	47a8      	blx	r5
     5e8:	1e05      	subs	r5, r0, #0
     5ea:	d0f0      	beq.n	5ce <udc_iface_disable+0xe>
     5ec:	4b08      	ldr	r3, [pc, #32]	; (610 <udc_iface_disable+0x50>)
     5ee:	681c      	ldr	r4, [r3, #0]
     5f0:	0020      	movs	r0, r4
     5f2:	4b08      	ldr	r3, [pc, #32]	; (614 <udc_iface_disable+0x54>)
     5f4:	4798      	blx	r3
     5f6:	1e04      	subs	r4, r0, #0
     5f8:	d003      	beq.n	602 <udc_iface_disable+0x42>
     5fa:	7880      	ldrb	r0, [r0, #2]
     5fc:	4b06      	ldr	r3, [pc, #24]	; (618 <udc_iface_disable+0x58>)
     5fe:	4798      	blx	r3
     600:	e7f6      	b.n	5f0 <udc_iface_disable+0x30>
     602:	6873      	ldr	r3, [r6, #4]
     604:	4798      	blx	r3
     606:	e7e3      	b.n	5d0 <udc_iface_disable+0x10>
     608:	000004d5 	.word	0x000004d5
     60c:	20000124 	.word	0x20000124
     610:	20000128 	.word	0x20000128
     614:	0000053d 	.word	0x0000053d
     618:	00001869 	.word	0x00001869

0000061c <udc_get_interface_desc>:
     61c:	4b01      	ldr	r3, [pc, #4]	; (624 <udc_get_interface_desc+0x8>)
     61e:	6818      	ldr	r0, [r3, #0]
     620:	4770      	bx	lr
     622:	46c0      	nop			; (mov r8, r8)
     624:	20000128 	.word	0x20000128

00000628 <udc_start>:
     628:	b510      	push	{r4, lr}
     62a:	4b01      	ldr	r3, [pc, #4]	; (630 <udc_start+0x8>)
     62c:	4798      	blx	r3
     62e:	bd10      	pop	{r4, pc}
     630:	00001d55 	.word	0x00001d55

00000634 <udc_reset>:
     634:	b570      	push	{r4, r5, r6, lr}
     636:	4d0e      	ldr	r5, [pc, #56]	; (670 <udc_reset+0x3c>)
     638:	2400      	movs	r4, #0
     63a:	782b      	ldrb	r3, [r5, #0]
     63c:	2b00      	cmp	r3, #0
     63e:	d10f      	bne.n	660 <udc_reset+0x2c>
     640:	2300      	movs	r3, #0
     642:	4c0c      	ldr	r4, [pc, #48]	; (674 <udc_reset+0x40>)
     644:	702b      	strb	r3, [r5, #0]
     646:	8823      	ldrh	r3, [r4, #0]
     648:	079b      	lsls	r3, r3, #30
     64a:	d501      	bpl.n	650 <udc_reset+0x1c>
     64c:	4b0a      	ldr	r3, [pc, #40]	; (678 <udc_reset+0x44>)
     64e:	4798      	blx	r3
     650:	2301      	movs	r3, #1
     652:	8023      	strh	r3, [r4, #0]
     654:	bd70      	pop	{r4, r5, r6, pc}
     656:	0020      	movs	r0, r4
     658:	4b08      	ldr	r3, [pc, #32]	; (67c <udc_reset+0x48>)
     65a:	4798      	blx	r3
     65c:	3401      	adds	r4, #1
     65e:	b2e4      	uxtb	r4, r4
     660:	4b07      	ldr	r3, [pc, #28]	; (680 <udc_reset+0x4c>)
     662:	681b      	ldr	r3, [r3, #0]
     664:	681b      	ldr	r3, [r3, #0]
     666:	791b      	ldrb	r3, [r3, #4]
     668:	42a3      	cmp	r3, r4
     66a:	d8f4      	bhi.n	656 <udc_reset+0x22>
     66c:	e7e8      	b.n	640 <udc_reset+0xc>
     66e:	46c0      	nop			; (mov r8, r8)
     670:	20000120 	.word	0x20000120
     674:	20000118 	.word	0x20000118
     678:	00002c99 	.word	0x00002c99
     67c:	000005c1 	.word	0x000005c1
     680:	20000124 	.word	0x20000124

00000684 <udc_sof_notify>:
     684:	b510      	push	{r4, lr}
     686:	4b0b      	ldr	r3, [pc, #44]	; (6b4 <udc_sof_notify+0x30>)
     688:	2400      	movs	r4, #0
     68a:	781b      	ldrb	r3, [r3, #0]
     68c:	2b00      	cmp	r3, #0
     68e:	d109      	bne.n	6a4 <udc_sof_notify+0x20>
     690:	bd10      	pop	{r4, pc}
     692:	685b      	ldr	r3, [r3, #4]
     694:	00a2      	lsls	r2, r4, #2
     696:	58d3      	ldr	r3, [r2, r3]
     698:	691b      	ldr	r3, [r3, #16]
     69a:	2b00      	cmp	r3, #0
     69c:	d000      	beq.n	6a0 <udc_sof_notify+0x1c>
     69e:	4798      	blx	r3
     6a0:	3401      	adds	r4, #1
     6a2:	b2e4      	uxtb	r4, r4
     6a4:	4b04      	ldr	r3, [pc, #16]	; (6b8 <udc_sof_notify+0x34>)
     6a6:	681b      	ldr	r3, [r3, #0]
     6a8:	681a      	ldr	r2, [r3, #0]
     6aa:	7912      	ldrb	r2, [r2, #4]
     6ac:	42a2      	cmp	r2, r4
     6ae:	d8f0      	bhi.n	692 <udc_sof_notify+0xe>
     6b0:	e7ee      	b.n	690 <udc_sof_notify+0xc>
     6b2:	46c0      	nop			; (mov r8, r8)
     6b4:	20000120 	.word	0x20000120
     6b8:	20000124 	.word	0x20000124

000006bc <udc_process_setup>:
     6bc:	b5f8      	push	{r3, r4, r5, r6, r7, lr}
     6be:	2300      	movs	r3, #0
     6c0:	4ca4      	ldr	r4, [pc, #656]	; (954 <udc_process_setup+0x298>)
     6c2:	81a3      	strh	r3, [r4, #12]
     6c4:	6123      	str	r3, [r4, #16]
     6c6:	6163      	str	r3, [r4, #20]
     6c8:	7823      	ldrb	r3, [r4, #0]
     6ca:	b258      	sxtb	r0, r3
     6cc:	2800      	cmp	r0, #0
     6ce:	da05      	bge.n	6dc <udc_process_setup+0x20>
     6d0:	88e2      	ldrh	r2, [r4, #6]
     6d2:	2a00      	cmp	r2, #0
     6d4:	d102      	bne.n	6dc <udc_process_setup+0x20>
     6d6:	2500      	movs	r5, #0
     6d8:	0028      	movs	r0, r5
     6da:	bdf8      	pop	{r3, r4, r5, r6, r7, pc}
     6dc:	2160      	movs	r1, #96	; 0x60
     6de:	4019      	ands	r1, r3
     6e0:	d120      	bne.n	724 <udc_process_setup+0x68>
     6e2:	221f      	movs	r2, #31
     6e4:	2800      	cmp	r0, #0
     6e6:	db00      	blt.n	6ea <udc_process_setup+0x2e>
     6e8:	e0cb      	b.n	882 <udc_process_setup+0x1c6>
     6ea:	88e5      	ldrh	r5, [r4, #6]
     6ec:	2d00      	cmp	r5, #0
     6ee:	d019      	beq.n	724 <udc_process_setup+0x68>
     6f0:	4013      	ands	r3, r2
     6f2:	d000      	beq.n	6f6 <udc_process_setup+0x3a>
     6f4:	e08b      	b.n	80e <udc_process_setup+0x152>
     6f6:	7863      	ldrb	r3, [r4, #1]
     6f8:	2b06      	cmp	r3, #6
     6fa:	d00c      	beq.n	716 <udc_process_setup+0x5a>
     6fc:	2b08      	cmp	r3, #8
     6fe:	d100      	bne.n	702 <udc_process_setup+0x46>
     700:	e07e      	b.n	800 <udc_process_setup+0x144>
     702:	2b00      	cmp	r3, #0
     704:	d10e      	bne.n	724 <udc_process_setup+0x68>
     706:	2d02      	cmp	r5, #2
     708:	d112      	bne.n	730 <udc_process_setup+0x74>
     70a:	0029      	movs	r1, r5
     70c:	4892      	ldr	r0, [pc, #584]	; (958 <udc_process_setup+0x29c>)
     70e:	4b93      	ldr	r3, [pc, #588]	; (95c <udc_process_setup+0x2a0>)
     710:	4798      	blx	r3
     712:	2501      	movs	r5, #1
     714:	e7e0      	b.n	6d8 <udc_process_setup+0x1c>
     716:	8863      	ldrh	r3, [r4, #2]
     718:	0a1d      	lsrs	r5, r3, #8
     71a:	2d02      	cmp	r5, #2
     71c:	d03d      	beq.n	79a <udc_process_setup+0xde>
     71e:	d829      	bhi.n	774 <udc_process_setup+0xb8>
     720:	2d01      	cmp	r5, #1
     722:	d034      	beq.n	78e <udc_process_setup+0xd2>
     724:	221f      	movs	r2, #31
     726:	7823      	ldrb	r3, [r4, #0]
     728:	4013      	ands	r3, r2
     72a:	2b01      	cmp	r3, #1
     72c:	d100      	bne.n	730 <udc_process_setup+0x74>
     72e:	e179      	b.n	a24 <udc_process_setup+0x368>
     730:	221f      	movs	r2, #31
     732:	7823      	ldrb	r3, [r4, #0]
     734:	4013      	ands	r3, r2
     736:	2b02      	cmp	r3, #2
     738:	d1cd      	bne.n	6d6 <udc_process_setup+0x1a>
     73a:	4b89      	ldr	r3, [pc, #548]	; (960 <udc_process_setup+0x2a4>)
     73c:	2400      	movs	r4, #0
     73e:	781b      	ldrb	r3, [r3, #0]
     740:	2b00      	cmp	r3, #0
     742:	d0c8      	beq.n	6d6 <udc_process_setup+0x1a>
     744:	4b87      	ldr	r3, [pc, #540]	; (964 <udc_process_setup+0x2a8>)
     746:	681b      	ldr	r3, [r3, #0]
     748:	681a      	ldr	r2, [r3, #0]
     74a:	7912      	ldrb	r2, [r2, #4]
     74c:	42a2      	cmp	r2, r4
     74e:	d9c2      	bls.n	6d6 <udc_process_setup+0x1a>
     750:	685b      	ldr	r3, [r3, #4]
     752:	00a2      	lsls	r2, r4, #2
     754:	58d5      	ldr	r5, [r2, r3]
     756:	68eb      	ldr	r3, [r5, #12]
     758:	4798      	blx	r3
     75a:	4b83      	ldr	r3, [pc, #524]	; (968 <udc_process_setup+0x2ac>)
     75c:	0001      	movs	r1, r0
     75e:	0020      	movs	r0, r4
     760:	4798      	blx	r3
     762:	2800      	cmp	r0, #0
     764:	d0b7      	beq.n	6d6 <udc_process_setup+0x1a>
     766:	68ab      	ldr	r3, [r5, #8]
     768:	4798      	blx	r3
     76a:	2800      	cmp	r0, #0
     76c:	d1d1      	bne.n	712 <udc_process_setup+0x56>
     76e:	3401      	adds	r4, #1
     770:	b2e4      	uxtb	r4, r4
     772:	e7e7      	b.n	744 <udc_process_setup+0x88>
     774:	2d03      	cmp	r5, #3
     776:	d027      	beq.n	7c8 <udc_process_setup+0x10c>
     778:	2d0f      	cmp	r5, #15
     77a:	d1d3      	bne.n	724 <udc_process_setup+0x68>
     77c:	4b7b      	ldr	r3, [pc, #492]	; (96c <udc_process_setup+0x2b0>)
     77e:	6898      	ldr	r0, [r3, #8]
     780:	2800      	cmp	r0, #0
     782:	d0d5      	beq.n	730 <udc_process_setup+0x74>
     784:	78c1      	ldrb	r1, [r0, #3]
     786:	7883      	ldrb	r3, [r0, #2]
     788:	0209      	lsls	r1, r1, #8
     78a:	4319      	orrs	r1, r3
     78c:	e002      	b.n	794 <udc_process_setup+0xd8>
     78e:	4b77      	ldr	r3, [pc, #476]	; (96c <udc_process_setup+0x2b0>)
     790:	6818      	ldr	r0, [r3, #0]
     792:	7801      	ldrb	r1, [r0, #0]
     794:	4b71      	ldr	r3, [pc, #452]	; (95c <udc_process_setup+0x2a0>)
     796:	4798      	blx	r3
     798:	e010      	b.n	7bc <udc_process_setup+0x100>
     79a:	4a74      	ldr	r2, [pc, #464]	; (96c <udc_process_setup+0x2b0>)
     79c:	b2db      	uxtb	r3, r3
     79e:	6811      	ldr	r1, [r2, #0]
     7a0:	7c49      	ldrb	r1, [r1, #17]
     7a2:	4299      	cmp	r1, r3
     7a4:	d9c4      	bls.n	730 <udc_process_setup+0x74>
     7a6:	6852      	ldr	r2, [r2, #4]
     7a8:	00db      	lsls	r3, r3, #3
     7aa:	5898      	ldr	r0, [r3, r2]
     7ac:	78c1      	ldrb	r1, [r0, #3]
     7ae:	7883      	ldrb	r3, [r0, #2]
     7b0:	0209      	lsls	r1, r1, #8
     7b2:	4319      	orrs	r1, r3
     7b4:	4b69      	ldr	r3, [pc, #420]	; (95c <udc_process_setup+0x2a0>)
     7b6:	4798      	blx	r3
     7b8:	68a3      	ldr	r3, [r4, #8]
     7ba:	705d      	strb	r5, [r3, #1]
     7bc:	88e3      	ldrh	r3, [r4, #6]
     7be:	89a2      	ldrh	r2, [r4, #12]
     7c0:	429a      	cmp	r2, r3
     7c2:	d9a6      	bls.n	712 <udc_process_setup+0x56>
     7c4:	81a3      	strh	r3, [r4, #12]
     7c6:	e7a4      	b.n	712 <udc_process_setup+0x56>
     7c8:	b2db      	uxtb	r3, r3
     7ca:	2b01      	cmp	r3, #1
     7cc:	d100      	bne.n	7d0 <udc_process_setup+0x114>
     7ce:	e14e      	b.n	a6e <udc_process_setup+0x3b2>
     7d0:	2b00      	cmp	r3, #0
     7d2:	d012      	beq.n	7fa <udc_process_setup+0x13e>
     7d4:	2b02      	cmp	r3, #2
     7d6:	d1a5      	bne.n	724 <udc_process_setup+0x68>
     7d8:	210c      	movs	r1, #12
     7da:	4d65      	ldr	r5, [pc, #404]	; (970 <udc_process_setup+0x2b4>)
     7dc:	2300      	movs	r3, #0
     7de:	4865      	ldr	r0, [pc, #404]	; (974 <udc_process_setup+0x2b8>)
     7e0:	005a      	lsls	r2, r3, #1
     7e2:	5cee      	ldrb	r6, [r5, r3]
     7e4:	1882      	adds	r2, r0, r2
     7e6:	3301      	adds	r3, #1
     7e8:	8056      	strh	r6, [r2, #2]
     7ea:	b2da      	uxtb	r2, r3
     7ec:	4291      	cmp	r1, r2
     7ee:	d8f7      	bhi.n	7e0 <udc_process_setup+0x124>
     7f0:	0049      	lsls	r1, r1, #1
     7f2:	3102      	adds	r1, #2
     7f4:	7001      	strb	r1, [r0, #0]
     7f6:	b289      	uxth	r1, r1
     7f8:	e7cc      	b.n	794 <udc_process_setup+0xd8>
     7fa:	2104      	movs	r1, #4
     7fc:	485e      	ldr	r0, [pc, #376]	; (978 <udc_process_setup+0x2bc>)
     7fe:	e7c9      	b.n	794 <udc_process_setup+0xd8>
     800:	2d01      	cmp	r5, #1
     802:	d195      	bne.n	730 <udc_process_setup+0x74>
     804:	0029      	movs	r1, r5
     806:	4856      	ldr	r0, [pc, #344]	; (960 <udc_process_setup+0x2a4>)
     808:	4b54      	ldr	r3, [pc, #336]	; (95c <udc_process_setup+0x2a0>)
     80a:	4798      	blx	r3
     80c:	e764      	b.n	6d8 <udc_process_setup+0x1c>
     80e:	2b01      	cmp	r3, #1
     810:	d122      	bne.n	858 <udc_process_setup+0x19c>
     812:	7863      	ldrb	r3, [r4, #1]
     814:	2b0a      	cmp	r3, #10
     816:	d185      	bne.n	724 <udc_process_setup+0x68>
     818:	2d01      	cmp	r5, #1
     81a:	d000      	beq.n	81e <udc_process_setup+0x162>
     81c:	e102      	b.n	a24 <udc_process_setup+0x368>
     81e:	4b50      	ldr	r3, [pc, #320]	; (960 <udc_process_setup+0x2a4>)
     820:	781b      	ldrb	r3, [r3, #0]
     822:	2b00      	cmp	r3, #0
     824:	d100      	bne.n	828 <udc_process_setup+0x16c>
     826:	e0fd      	b.n	a24 <udc_process_setup+0x368>
     828:	4b4e      	ldr	r3, [pc, #312]	; (964 <udc_process_setup+0x2a8>)
     82a:	7926      	ldrb	r6, [r4, #4]
     82c:	681f      	ldr	r7, [r3, #0]
     82e:	683b      	ldr	r3, [r7, #0]
     830:	791b      	ldrb	r3, [r3, #4]
     832:	42b3      	cmp	r3, r6
     834:	d800      	bhi.n	838 <udc_process_setup+0x17c>
     836:	e0f5      	b.n	a24 <udc_process_setup+0x368>
     838:	0030      	movs	r0, r6
     83a:	4b4b      	ldr	r3, [pc, #300]	; (968 <udc_process_setup+0x2ac>)
     83c:	4798      	blx	r3
     83e:	1e05      	subs	r5, r0, #0
     840:	d100      	bne.n	844 <udc_process_setup+0x188>
     842:	e76f      	b.n	724 <udc_process_setup+0x68>
     844:	687b      	ldr	r3, [r7, #4]
     846:	00b6      	lsls	r6, r6, #2
     848:	58f3      	ldr	r3, [r6, r3]
     84a:	68db      	ldr	r3, [r3, #12]
     84c:	4798      	blx	r3
     84e:	4b4b      	ldr	r3, [pc, #300]	; (97c <udc_process_setup+0x2c0>)
     850:	2101      	movs	r1, #1
     852:	7018      	strb	r0, [r3, #0]
     854:	0018      	movs	r0, r3
     856:	e7d7      	b.n	808 <udc_process_setup+0x14c>
     858:	2b02      	cmp	r3, #2
     85a:	d000      	beq.n	85e <udc_process_setup+0x1a2>
     85c:	e762      	b.n	724 <udc_process_setup+0x68>
     85e:	7863      	ldrb	r3, [r4, #1]
     860:	2b00      	cmp	r3, #0
     862:	d000      	beq.n	866 <udc_process_setup+0x1aa>
     864:	e75e      	b.n	724 <udc_process_setup+0x68>
     866:	2d02      	cmp	r5, #2
     868:	d000      	beq.n	86c <udc_process_setup+0x1b0>
     86a:	e761      	b.n	730 <udc_process_setup+0x74>
     86c:	4b44      	ldr	r3, [pc, #272]	; (980 <udc_process_setup+0x2c4>)
     86e:	7920      	ldrb	r0, [r4, #4]
     870:	4798      	blx	r3
     872:	4b44      	ldr	r3, [pc, #272]	; (984 <udc_process_setup+0x2c8>)
     874:	0029      	movs	r1, r5
     876:	8018      	strh	r0, [r3, #0]
     878:	0018      	movs	r0, r3
     87a:	4b38      	ldr	r3, [pc, #224]	; (95c <udc_process_setup+0x2a0>)
     87c:	4798      	blx	r3
     87e:	3d01      	subs	r5, #1
     880:	e72a      	b.n	6d8 <udc_process_setup+0x1c>
     882:	4013      	ands	r3, r2
     884:	d000      	beq.n	888 <udc_process_setup+0x1cc>
     886:	e08d      	b.n	9a4 <udc_process_setup+0x2e8>
     888:	7860      	ldrb	r0, [r4, #1]
     88a:	3801      	subs	r0, #1
     88c:	2808      	cmp	r0, #8
     88e:	d900      	bls.n	892 <udc_process_setup+0x1d6>
     890:	e748      	b.n	724 <udc_process_setup+0x68>
     892:	f002 fa1d 	bl	2cd0 <__gnu_thumb1_case_shi>
     896:	0010      	.short	0x0010
     898:	0020ff47 	.word	0x0020ff47
     89c:	0009ff47 	.word	0x0009ff47
     8a0:	ff47ff47 	.word	0xff47ff47
     8a4:	002fff47 	.word	0x002fff47
     8a8:	88e3      	ldrh	r3, [r4, #6]
     8aa:	2b00      	cmp	r3, #0
     8ac:	d000      	beq.n	8b0 <udc_process_setup+0x1f4>
     8ae:	e73f      	b.n	730 <udc_process_setup+0x74>
     8b0:	4b35      	ldr	r3, [pc, #212]	; (988 <udc_process_setup+0x2cc>)
     8b2:	6123      	str	r3, [r4, #16]
     8b4:	e72d      	b.n	712 <udc_process_setup+0x56>
     8b6:	88e3      	ldrh	r3, [r4, #6]
     8b8:	2b00      	cmp	r3, #0
     8ba:	d000      	beq.n	8be <udc_process_setup+0x202>
     8bc:	e738      	b.n	730 <udc_process_setup+0x74>
     8be:	8865      	ldrh	r5, [r4, #2]
     8c0:	2d01      	cmp	r5, #1
     8c2:	d000      	beq.n	8c6 <udc_process_setup+0x20a>
     8c4:	e734      	b.n	730 <udc_process_setup+0x74>
     8c6:	2102      	movs	r1, #2
     8c8:	4a23      	ldr	r2, [pc, #140]	; (958 <udc_process_setup+0x29c>)
     8ca:	8813      	ldrh	r3, [r2, #0]
     8cc:	438b      	bics	r3, r1
     8ce:	8013      	strh	r3, [r2, #0]
     8d0:	4b2e      	ldr	r3, [pc, #184]	; (98c <udc_process_setup+0x2d0>)
     8d2:	4798      	blx	r3
     8d4:	e700      	b.n	6d8 <udc_process_setup+0x1c>
     8d6:	88e3      	ldrh	r3, [r4, #6]
     8d8:	2b00      	cmp	r3, #0
     8da:	d000      	beq.n	8de <udc_process_setup+0x222>
     8dc:	e728      	b.n	730 <udc_process_setup+0x74>
     8de:	8865      	ldrh	r5, [r4, #2]
     8e0:	2d01      	cmp	r5, #1
     8e2:	d000      	beq.n	8e6 <udc_process_setup+0x22a>
     8e4:	e71e      	b.n	724 <udc_process_setup+0x68>
     8e6:	4a1c      	ldr	r2, [pc, #112]	; (958 <udc_process_setup+0x29c>)
     8e8:	3302      	adds	r3, #2
     8ea:	8811      	ldrh	r1, [r2, #0]
     8ec:	430b      	orrs	r3, r1
     8ee:	8013      	strh	r3, [r2, #0]
     8f0:	4b27      	ldr	r3, [pc, #156]	; (990 <udc_process_setup+0x2d4>)
     8f2:	e7ee      	b.n	8d2 <udc_process_setup+0x216>
     8f4:	88e5      	ldrh	r5, [r4, #6]
     8f6:	2d00      	cmp	r5, #0
     8f8:	d000      	beq.n	8fc <udc_process_setup+0x240>
     8fa:	e719      	b.n	730 <udc_process_setup+0x74>
     8fc:	4b25      	ldr	r3, [pc, #148]	; (994 <udc_process_setup+0x2d8>)
     8fe:	4798      	blx	r3
     900:	2800      	cmp	r0, #0
     902:	d100      	bne.n	906 <udc_process_setup+0x24a>
     904:	e70e      	b.n	724 <udc_process_setup+0x68>
     906:	4f19      	ldr	r7, [pc, #100]	; (96c <udc_process_setup+0x2b0>)
     908:	78a2      	ldrb	r2, [r4, #2]
     90a:	683b      	ldr	r3, [r7, #0]
     90c:	7c5b      	ldrb	r3, [r3, #17]
     90e:	429a      	cmp	r2, r3
     910:	dd00      	ble.n	914 <udc_process_setup+0x258>
     912:	e707      	b.n	724 <udc_process_setup+0x68>
     914:	4b20      	ldr	r3, [pc, #128]	; (998 <udc_process_setup+0x2dc>)
     916:	4798      	blx	r3
     918:	78a3      	ldrb	r3, [r4, #2]
     91a:	4a11      	ldr	r2, [pc, #68]	; (960 <udc_process_setup+0x2a4>)
     91c:	7013      	strb	r3, [r2, #0]
     91e:	2b00      	cmp	r3, #0
     920:	d100      	bne.n	924 <udc_process_setup+0x268>
     922:	e6f6      	b.n	712 <udc_process_setup+0x56>
     924:	4a1d      	ldr	r2, [pc, #116]	; (99c <udc_process_setup+0x2e0>)
     926:	4e0f      	ldr	r6, [pc, #60]	; (964 <udc_process_setup+0x2a8>)
     928:	189b      	adds	r3, r3, r2
     92a:	687a      	ldr	r2, [r7, #4]
     92c:	00db      	lsls	r3, r3, #3
     92e:	18d3      	adds	r3, r2, r3
     930:	6033      	str	r3, [r6, #0]
     932:	6833      	ldr	r3, [r6, #0]
     934:	681b      	ldr	r3, [r3, #0]
     936:	791b      	ldrb	r3, [r3, #4]
     938:	42ab      	cmp	r3, r5
     93a:	d800      	bhi.n	93e <udc_process_setup+0x282>
     93c:	e6e9      	b.n	712 <udc_process_setup+0x56>
     93e:	2100      	movs	r1, #0
     940:	0028      	movs	r0, r5
     942:	4b17      	ldr	r3, [pc, #92]	; (9a0 <udc_process_setup+0x2e4>)
     944:	4798      	blx	r3
     946:	2800      	cmp	r0, #0
     948:	d100      	bne.n	94c <udc_process_setup+0x290>
     94a:	e6eb      	b.n	724 <udc_process_setup+0x68>
     94c:	3501      	adds	r5, #1
     94e:	b2ed      	uxtb	r5, r5
     950:	e7ef      	b.n	932 <udc_process_setup+0x276>
     952:	46c0      	nop			; (mov r8, r8)
     954:	20000388 	.word	0x20000388
     958:	20000118 	.word	0x20000118
     95c:	00001c71 	.word	0x00001c71
     960:	20000120 	.word	0x20000120
     964:	20000124 	.word	0x20000124
     968:	000004d5 	.word	0x000004d5
     96c:	20000050 	.word	0x20000050
     970:	200000ca 	.word	0x200000ca
     974:	200000a0 	.word	0x200000a0
     978:	200000bc 	.word	0x200000bc
     97c:	2000011c 	.word	0x2000011c
     980:	00001989 	.word	0x00001989
     984:	2000011a 	.word	0x2000011a
     988:	000004bd 	.word	0x000004bd
     98c:	00002c99 	.word	0x00002c99
     990:	00002c8d 	.word	0x00002c8d
     994:	00001c61 	.word	0x00001c61
     998:	00000635 	.word	0x00000635
     99c:	1fffffff 	.word	0x1fffffff
     9a0:	00000569 	.word	0x00000569
     9a4:	2b01      	cmp	r3, #1
     9a6:	d11a      	bne.n	9de <udc_process_setup+0x322>
     9a8:	7863      	ldrb	r3, [r4, #1]
     9aa:	2b0b      	cmp	r3, #11
     9ac:	d000      	beq.n	9b0 <udc_process_setup+0x2f4>
     9ae:	e6b9      	b.n	724 <udc_process_setup+0x68>
     9b0:	88e3      	ldrh	r3, [r4, #6]
     9b2:	2b00      	cmp	r3, #0
     9b4:	d136      	bne.n	a24 <udc_process_setup+0x368>
     9b6:	4b2f      	ldr	r3, [pc, #188]	; (a74 <udc_process_setup+0x3b8>)
     9b8:	781b      	ldrb	r3, [r3, #0]
     9ba:	2b00      	cmp	r3, #0
     9bc:	d032      	beq.n	a24 <udc_process_setup+0x368>
     9be:	7926      	ldrb	r6, [r4, #4]
     9c0:	4b2d      	ldr	r3, [pc, #180]	; (a78 <udc_process_setup+0x3bc>)
     9c2:	0030      	movs	r0, r6
     9c4:	8865      	ldrh	r5, [r4, #2]
     9c6:	4798      	blx	r3
     9c8:	2800      	cmp	r0, #0
     9ca:	d100      	bne.n	9ce <udc_process_setup+0x312>
     9cc:	e6aa      	b.n	724 <udc_process_setup+0x68>
     9ce:	b2e9      	uxtb	r1, r5
     9d0:	0030      	movs	r0, r6
     9d2:	4b2a      	ldr	r3, [pc, #168]	; (a7c <udc_process_setup+0x3c0>)
     9d4:	4798      	blx	r3
     9d6:	2800      	cmp	r0, #0
     9d8:	d000      	beq.n	9dc <udc_process_setup+0x320>
     9da:	e69a      	b.n	712 <udc_process_setup+0x56>
     9dc:	e6a2      	b.n	724 <udc_process_setup+0x68>
     9de:	2b02      	cmp	r3, #2
     9e0:	d000      	beq.n	9e4 <udc_process_setup+0x328>
     9e2:	e69f      	b.n	724 <udc_process_setup+0x68>
     9e4:	7863      	ldrb	r3, [r4, #1]
     9e6:	2b01      	cmp	r3, #1
     9e8:	d010      	beq.n	a0c <udc_process_setup+0x350>
     9ea:	2b03      	cmp	r3, #3
     9ec:	d000      	beq.n	9f0 <udc_process_setup+0x334>
     9ee:	e699      	b.n	724 <udc_process_setup+0x68>
     9f0:	88e3      	ldrh	r3, [r4, #6]
     9f2:	2b00      	cmp	r3, #0
     9f4:	d000      	beq.n	9f8 <udc_process_setup+0x33c>
     9f6:	e69b      	b.n	730 <udc_process_setup+0x74>
     9f8:	8863      	ldrh	r3, [r4, #2]
     9fa:	2b00      	cmp	r3, #0
     9fc:	d000      	beq.n	a00 <udc_process_setup+0x344>
     9fe:	e697      	b.n	730 <udc_process_setup+0x74>
     a00:	7920      	ldrb	r0, [r4, #4]
     a02:	4b1f      	ldr	r3, [pc, #124]	; (a80 <udc_process_setup+0x3c4>)
     a04:	4798      	blx	r3
     a06:	7920      	ldrb	r0, [r4, #4]
     a08:	4b1e      	ldr	r3, [pc, #120]	; (a84 <udc_process_setup+0x3c8>)
     a0a:	e009      	b.n	a20 <udc_process_setup+0x364>
     a0c:	88e3      	ldrh	r3, [r4, #6]
     a0e:	2b00      	cmp	r3, #0
     a10:	d000      	beq.n	a14 <udc_process_setup+0x358>
     a12:	e68d      	b.n	730 <udc_process_setup+0x74>
     a14:	8863      	ldrh	r3, [r4, #2]
     a16:	2b00      	cmp	r3, #0
     a18:	d000      	beq.n	a1c <udc_process_setup+0x360>
     a1a:	e689      	b.n	730 <udc_process_setup+0x74>
     a1c:	7920      	ldrb	r0, [r4, #4]
     a1e:	4b1a      	ldr	r3, [pc, #104]	; (a88 <udc_process_setup+0x3cc>)
     a20:	4798      	blx	r3
     a22:	e7d8      	b.n	9d6 <udc_process_setup+0x31a>
     a24:	4b13      	ldr	r3, [pc, #76]	; (a74 <udc_process_setup+0x3b8>)
     a26:	781b      	ldrb	r3, [r3, #0]
     a28:	2b00      	cmp	r3, #0
     a2a:	d100      	bne.n	a2e <udc_process_setup+0x372>
     a2c:	e680      	b.n	730 <udc_process_setup+0x74>
     a2e:	4b17      	ldr	r3, [pc, #92]	; (a8c <udc_process_setup+0x3d0>)
     a30:	7925      	ldrb	r5, [r4, #4]
     a32:	681e      	ldr	r6, [r3, #0]
     a34:	6833      	ldr	r3, [r6, #0]
     a36:	791b      	ldrb	r3, [r3, #4]
     a38:	42ab      	cmp	r3, r5
     a3a:	d800      	bhi.n	a3e <udc_process_setup+0x382>
     a3c:	e678      	b.n	730 <udc_process_setup+0x74>
     a3e:	2100      	movs	r1, #0
     a40:	0028      	movs	r0, r5
     a42:	4f13      	ldr	r7, [pc, #76]	; (a90 <udc_process_setup+0x3d4>)
     a44:	47b8      	blx	r7
     a46:	2800      	cmp	r0, #0
     a48:	d100      	bne.n	a4c <udc_process_setup+0x390>
     a4a:	e671      	b.n	730 <udc_process_setup+0x74>
     a4c:	6873      	ldr	r3, [r6, #4]
     a4e:	00aa      	lsls	r2, r5, #2
     a50:	58d6      	ldr	r6, [r2, r3]
     a52:	68f3      	ldr	r3, [r6, #12]
     a54:	4798      	blx	r3
     a56:	0001      	movs	r1, r0
     a58:	0028      	movs	r0, r5
     a5a:	47b8      	blx	r7
     a5c:	2800      	cmp	r0, #0
     a5e:	d100      	bne.n	a62 <udc_process_setup+0x3a6>
     a60:	e666      	b.n	730 <udc_process_setup+0x74>
     a62:	68b3      	ldr	r3, [r6, #8]
     a64:	4798      	blx	r3
     a66:	2800      	cmp	r0, #0
     a68:	d000      	beq.n	a6c <udc_process_setup+0x3b0>
     a6a:	e652      	b.n	712 <udc_process_setup+0x56>
     a6c:	e660      	b.n	730 <udc_process_setup+0x74>
     a6e:	2109      	movs	r1, #9
     a70:	4d08      	ldr	r5, [pc, #32]	; (a94 <udc_process_setup+0x3d8>)
     a72:	e6b3      	b.n	7dc <udc_process_setup+0x120>
     a74:	20000120 	.word	0x20000120
     a78:	000005c1 	.word	0x000005c1
     a7c:	00000569 	.word	0x00000569
     a80:	0000181d 	.word	0x0000181d
     a84:	0000199d 	.word	0x0000199d
     a88:	00001a9d 	.word	0x00001a9d
     a8c:	20000124 	.word	0x20000124
     a90:	000004d5 	.word	0x000004d5
     a94:	200000c0 	.word	0x200000c0

00000a98 <cpu_irq_enter_critical>:
     a98:	4b09      	ldr	r3, [pc, #36]	; (ac0 <cpu_irq_enter_critical+0x28>)
     a9a:	6819      	ldr	r1, [r3, #0]
     a9c:	2900      	cmp	r1, #0
     a9e:	d10b      	bne.n	ab8 <cpu_irq_enter_critical+0x20>
     aa0:	f3ef 8010 	mrs	r0, PRIMASK
     aa4:	4a07      	ldr	r2, [pc, #28]	; (ac4 <cpu_irq_enter_critical+0x2c>)
     aa6:	2800      	cmp	r0, #0
     aa8:	d105      	bne.n	ab6 <cpu_irq_enter_critical+0x1e>
     aaa:	b672      	cpsid	i
     aac:	f3bf 8f5f 	dmb	sy
     ab0:	4905      	ldr	r1, [pc, #20]	; (ac8 <cpu_irq_enter_critical+0x30>)
     ab2:	7008      	strb	r0, [r1, #0]
     ab4:	2101      	movs	r1, #1
     ab6:	7011      	strb	r1, [r2, #0]
     ab8:	681a      	ldr	r2, [r3, #0]
     aba:	3201      	adds	r2, #1
     abc:	601a      	str	r2, [r3, #0]
     abe:	4770      	bx	lr
     ac0:	2000012c 	.word	0x2000012c
     ac4:	20000130 	.word	0x20000130
     ac8:	200000d7 	.word	0x200000d7

00000acc <cpu_irq_leave_critical>:
     acc:	4b08      	ldr	r3, [pc, #32]	; (af0 <cpu_irq_leave_critical+0x24>)
     ace:	681a      	ldr	r2, [r3, #0]
     ad0:	3a01      	subs	r2, #1
     ad2:	601a      	str	r2, [r3, #0]
     ad4:	681b      	ldr	r3, [r3, #0]
     ad6:	2b00      	cmp	r3, #0
     ad8:	d109      	bne.n	aee <cpu_irq_leave_critical+0x22>
     ada:	4b06      	ldr	r3, [pc, #24]	; (af4 <cpu_irq_leave_critical+0x28>)
     adc:	781b      	ldrb	r3, [r3, #0]
     ade:	2b00      	cmp	r3, #0
     ae0:	d005      	beq.n	aee <cpu_irq_leave_critical+0x22>
     ae2:	2201      	movs	r2, #1
     ae4:	4b04      	ldr	r3, [pc, #16]	; (af8 <cpu_irq_leave_critical+0x2c>)
     ae6:	701a      	strb	r2, [r3, #0]
     ae8:	f3bf 8f5f 	dmb	sy
     aec:	b662      	cpsie	i
     aee:	4770      	bx	lr
     af0:	2000012c 	.word	0x2000012c
     af4:	20000130 	.word	0x20000130
     af8:	200000d7 	.word	0x200000d7

00000afc <system_board_init>:
     afc:	b5f7      	push	{r0, r1, r2, r4, r5, r6, r7, lr}
     afe:	2501      	movs	r5, #1
     b00:	2700      	movs	r7, #0
     b02:	ac01      	add	r4, sp, #4
     b04:	4e08      	ldr	r6, [pc, #32]	; (b28 <system_board_init+0x2c>)
     b06:	0021      	movs	r1, r4
     b08:	200a      	movs	r0, #10
     b0a:	7065      	strb	r5, [r4, #1]
     b0c:	70a7      	strb	r7, [r4, #2]
     b0e:	7025      	strb	r5, [r4, #0]
     b10:	47b0      	blx	r6
     b12:	2280      	movs	r2, #128	; 0x80
     b14:	4b05      	ldr	r3, [pc, #20]	; (b2c <system_board_init+0x30>)
     b16:	00d2      	lsls	r2, r2, #3
     b18:	619a      	str	r2, [r3, #24]
     b1a:	0021      	movs	r1, r4
     b1c:	200e      	movs	r0, #14
     b1e:	7027      	strb	r7, [r4, #0]
     b20:	7065      	strb	r5, [r4, #1]
     b22:	47b0      	blx	r6
     b24:	bdf7      	pop	{r0, r1, r2, r4, r5, r6, r7, pc}
     b26:	46c0      	nop			; (mov r8, r8)
     b28:	00000cf1 	.word	0x00000cf1
     b2c:	41004400 	.word	0x41004400

00000b30 <extint_register_callback>:
     b30:	b510      	push	{r4, lr}
     b32:	2317      	movs	r3, #23
     b34:	2a00      	cmp	r2, #0
     b36:	d106      	bne.n	b46 <extint_register_callback+0x16>
     b38:	4b06      	ldr	r3, [pc, #24]	; (b54 <extint_register_callback+0x24>)
     b3a:	0089      	lsls	r1, r1, #2
     b3c:	58cc      	ldr	r4, [r1, r3]
     b3e:	2c00      	cmp	r4, #0
     b40:	d103      	bne.n	b4a <extint_register_callback+0x1a>
     b42:	50c8      	str	r0, [r1, r3]
     b44:	0023      	movs	r3, r4
     b46:	0018      	movs	r0, r3
     b48:	bd10      	pop	{r4, pc}
     b4a:	0013      	movs	r3, r2
     b4c:	4284      	cmp	r4, r0
     b4e:	d0fa      	beq.n	b46 <extint_register_callback+0x16>
     b50:	231d      	movs	r3, #29
     b52:	e7f8      	b.n	b46 <extint_register_callback+0x16>
     b54:	200001a0 	.word	0x200001a0

00000b58 <extint_chan_enable_callback>:
     b58:	2317      	movs	r3, #23
     b5a:	2900      	cmp	r1, #0
     b5c:	d106      	bne.n	b6c <extint_chan_enable_callback+0x14>
     b5e:	281f      	cmp	r0, #31
     b60:	d806      	bhi.n	b70 <extint_chan_enable_callback+0x18>
     b62:	3b16      	subs	r3, #22
     b64:	4083      	lsls	r3, r0
     b66:	4a03      	ldr	r2, [pc, #12]	; (b74 <extint_chan_enable_callback+0x1c>)
     b68:	60d3      	str	r3, [r2, #12]
     b6a:	000b      	movs	r3, r1
     b6c:	0018      	movs	r0, r3
     b6e:	4770      	bx	lr
     b70:	60c9      	str	r1, [r1, #12]
     b72:	deff      	udf	#255	; 0xff
     b74:	40001800 	.word	0x40001800

00000b78 <extint_chan_disable_callback>:
     b78:	2317      	movs	r3, #23
     b7a:	2900      	cmp	r1, #0
     b7c:	d106      	bne.n	b8c <extint_chan_disable_callback+0x14>
     b7e:	281f      	cmp	r0, #31
     b80:	d806      	bhi.n	b90 <extint_chan_disable_callback+0x18>
     b82:	3b16      	subs	r3, #22
     b84:	4083      	lsls	r3, r0
     b86:	4a03      	ldr	r2, [pc, #12]	; (b94 <extint_chan_disable_callback+0x1c>)
     b88:	6093      	str	r3, [r2, #8]
     b8a:	000b      	movs	r3, r1
     b8c:	0018      	movs	r0, r3
     b8e:	4770      	bx	lr
     b90:	6089      	str	r1, [r1, #8]
     b92:	deff      	udf	#255	; 0xff
     b94:	40001800 	.word	0x40001800

00000b98 <EIC_Handler>:
     b98:	2300      	movs	r3, #0
     b9a:	b570      	push	{r4, r5, r6, lr}
     b9c:	2501      	movs	r5, #1
     b9e:	4c0b      	ldr	r4, [pc, #44]	; (bcc <EIC_Handler+0x34>)
     ba0:	7023      	strb	r3, [r4, #0]
     ba2:	7823      	ldrb	r3, [r4, #0]
     ba4:	2b0f      	cmp	r3, #15
     ba6:	d900      	bls.n	baa <EIC_Handler+0x12>
     ba8:	bd70      	pop	{r4, r5, r6, pc}
     baa:	0029      	movs	r1, r5
     bac:	4099      	lsls	r1, r3
     bae:	4a08      	ldr	r2, [pc, #32]	; (bd0 <EIC_Handler+0x38>)
     bb0:	6910      	ldr	r0, [r2, #16]
     bb2:	4208      	tst	r0, r1
     bb4:	d006      	beq.n	bc4 <EIC_Handler+0x2c>
     bb6:	6111      	str	r1, [r2, #16]
     bb8:	4a06      	ldr	r2, [pc, #24]	; (bd4 <EIC_Handler+0x3c>)
     bba:	009b      	lsls	r3, r3, #2
     bbc:	589b      	ldr	r3, [r3, r2]
     bbe:	2b00      	cmp	r3, #0
     bc0:	d000      	beq.n	bc4 <EIC_Handler+0x2c>
     bc2:	4798      	blx	r3
     bc4:	7823      	ldrb	r3, [r4, #0]
     bc6:	3301      	adds	r3, #1
     bc8:	7023      	strb	r3, [r4, #0]
     bca:	e7ea      	b.n	ba2 <EIC_Handler+0xa>
     bcc:	2000019f 	.word	0x2000019f
     bd0:	40001800 	.word	0x40001800
     bd4:	200001a0 	.word	0x200001a0

00000bd8 <extint_is_syncing>:
     bd8:	4b01      	ldr	r3, [pc, #4]	; (be0 <extint_is_syncing+0x8>)
     bda:	7858      	ldrb	r0, [r3, #1]
     bdc:	09c0      	lsrs	r0, r0, #7
     bde:	4770      	bx	lr
     be0:	40001800 	.word	0x40001800

00000be4 <_extint_enable>:
     be4:	2302      	movs	r3, #2
     be6:	b510      	push	{r4, lr}
     be8:	4a04      	ldr	r2, [pc, #16]	; (bfc <_extint_enable+0x18>)
     bea:	7811      	ldrb	r1, [r2, #0]
     bec:	430b      	orrs	r3, r1
     bee:	7013      	strb	r3, [r2, #0]
     bf0:	4b03      	ldr	r3, [pc, #12]	; (c00 <_extint_enable+0x1c>)
     bf2:	4798      	blx	r3
     bf4:	2800      	cmp	r0, #0
     bf6:	d1fb      	bne.n	bf0 <_extint_enable+0xc>
     bf8:	bd10      	pop	{r4, pc}
     bfa:	46c0      	nop			; (mov r8, r8)
     bfc:	40001800 	.word	0x40001800
     c00:	00000bd9 	.word	0x00000bd9

00000c04 <_system_extint_init>:
     c04:	2340      	movs	r3, #64	; 0x40
     c06:	b507      	push	{r0, r1, r2, lr}
     c08:	4a10      	ldr	r2, [pc, #64]	; (c4c <_system_extint_init+0x48>)
     c0a:	2005      	movs	r0, #5
     c0c:	6991      	ldr	r1, [r2, #24]
     c0e:	430b      	orrs	r3, r1
     c10:	6193      	str	r3, [r2, #24]
     c12:	2300      	movs	r3, #0
     c14:	a901      	add	r1, sp, #4
     c16:	700b      	strb	r3, [r1, #0]
     c18:	4b0d      	ldr	r3, [pc, #52]	; (c50 <_system_extint_init+0x4c>)
     c1a:	4798      	blx	r3
     c1c:	4b0d      	ldr	r3, [pc, #52]	; (c54 <_system_extint_init+0x50>)
     c1e:	2005      	movs	r0, #5
     c20:	4798      	blx	r3
     c22:	2301      	movs	r3, #1
     c24:	4a0c      	ldr	r2, [pc, #48]	; (c58 <_system_extint_init+0x54>)
     c26:	7811      	ldrb	r1, [r2, #0]
     c28:	430b      	orrs	r3, r1
     c2a:	7013      	strb	r3, [r2, #0]
     c2c:	4b0b      	ldr	r3, [pc, #44]	; (c5c <_system_extint_init+0x58>)
     c2e:	4798      	blx	r3
     c30:	2800      	cmp	r0, #0
     c32:	d1fb      	bne.n	c2c <_system_extint_init+0x28>
     c34:	0002      	movs	r2, r0
     c36:	4b0a      	ldr	r3, [pc, #40]	; (c60 <_system_extint_init+0x5c>)
     c38:	501a      	str	r2, [r3, r0]
     c3a:	3004      	adds	r0, #4
     c3c:	2840      	cmp	r0, #64	; 0x40
     c3e:	d1fb      	bne.n	c38 <_system_extint_init+0x34>
     c40:	2210      	movs	r2, #16
     c42:	4b08      	ldr	r3, [pc, #32]	; (c64 <_system_extint_init+0x60>)
     c44:	601a      	str	r2, [r3, #0]
     c46:	4b08      	ldr	r3, [pc, #32]	; (c68 <_system_extint_init+0x64>)
     c48:	4798      	blx	r3
     c4a:	bd07      	pop	{r0, r1, r2, pc}
     c4c:	40000400 	.word	0x40000400
     c50:	0000110d 	.word	0x0000110d
     c54:	00001085 	.word	0x00001085
     c58:	40001800 	.word	0x40001800
     c5c:	00000bd9 	.word	0x00000bd9
     c60:	200001a0 	.word	0x200001a0
     c64:	e000e100 	.word	0xe000e100
     c68:	00000be5 	.word	0x00000be5

00000c6c <extint_chan_get_config_defaults>:
     c6c:	2300      	movs	r3, #0
     c6e:	2201      	movs	r2, #1
     c70:	6003      	str	r3, [r0, #0]
     c72:	6043      	str	r3, [r0, #4]
     c74:	7283      	strb	r3, [r0, #10]
     c76:	3302      	adds	r3, #2
     c78:	7202      	strb	r2, [r0, #8]
     c7a:	7242      	strb	r2, [r0, #9]
     c7c:	72c3      	strb	r3, [r0, #11]
     c7e:	4770      	bx	lr

00000c80 <extint_chan_set_config>:
     c80:	b5f7      	push	{r0, r1, r2, r4, r5, r6, r7, lr}
     c82:	000c      	movs	r4, r1
     c84:	2600      	movs	r6, #0
     c86:	7923      	ldrb	r3, [r4, #4]
     c88:	a901      	add	r1, sp, #4
     c8a:	704e      	strb	r6, [r1, #1]
     c8c:	70ce      	strb	r6, [r1, #3]
     c8e:	700b      	strb	r3, [r1, #0]
     c90:	7a23      	ldrb	r3, [r4, #8]
     c92:	0005      	movs	r5, r0
     c94:	708b      	strb	r3, [r1, #2]
     c96:	7820      	ldrb	r0, [r4, #0]
     c98:	4b13      	ldr	r3, [pc, #76]	; (ce8 <extint_chan_set_config+0x68>)
     c9a:	4798      	blx	r3
     c9c:	0033      	movs	r3, r6
     c9e:	2d1f      	cmp	r5, #31
     ca0:	d800      	bhi.n	ca4 <extint_chan_set_config+0x24>
     ca2:	4b12      	ldr	r3, [pc, #72]	; (cec <extint_chan_set_config+0x6c>)
     ca4:	2107      	movs	r1, #7
     ca6:	7aa2      	ldrb	r2, [r4, #10]
     ca8:	4029      	ands	r1, r5
     caa:	0089      	lsls	r1, r1, #2
     cac:	7ae6      	ldrb	r6, [r4, #11]
     cae:	2a00      	cmp	r2, #0
     cb0:	d001      	beq.n	cb6 <extint_chan_set_config+0x36>
     cb2:	2208      	movs	r2, #8
     cb4:	4316      	orrs	r6, r2
     cb6:	270f      	movs	r7, #15
     cb8:	408e      	lsls	r6, r1
     cba:	408f      	lsls	r7, r1
     cbc:	0031      	movs	r1, r6
     cbe:	08ea      	lsrs	r2, r5, #3
     cc0:	0092      	lsls	r2, r2, #2
     cc2:	189a      	adds	r2, r3, r2
     cc4:	6990      	ldr	r0, [r2, #24]
     cc6:	43b8      	bics	r0, r7
     cc8:	4301      	orrs	r1, r0
     cca:	6191      	str	r1, [r2, #24]
     ccc:	7a61      	ldrb	r1, [r4, #9]
     cce:	2201      	movs	r2, #1
     cd0:	2900      	cmp	r1, #0
     cd2:	d004      	beq.n	cde <extint_chan_set_config+0x5e>
     cd4:	40aa      	lsls	r2, r5
     cd6:	6959      	ldr	r1, [r3, #20]
     cd8:	430a      	orrs	r2, r1
     cda:	615a      	str	r2, [r3, #20]
     cdc:	bdf7      	pop	{r0, r1, r2, r4, r5, r6, r7, pc}
     cde:	40aa      	lsls	r2, r5
     ce0:	6959      	ldr	r1, [r3, #20]
     ce2:	4391      	bics	r1, r2
     ce4:	6159      	str	r1, [r3, #20]
     ce6:	e7f9      	b.n	cdc <extint_chan_set_config+0x5c>
     ce8:	000011ad 	.word	0x000011ad
     cec:	40001800 	.word	0x40001800

00000cf0 <port_pin_set_config>:
     cf0:	b507      	push	{r0, r1, r2, lr}
     cf2:	2280      	movs	r2, #128	; 0x80
     cf4:	ab01      	add	r3, sp, #4
     cf6:	701a      	strb	r2, [r3, #0]
     cf8:	780a      	ldrb	r2, [r1, #0]
     cfa:	705a      	strb	r2, [r3, #1]
     cfc:	784a      	ldrb	r2, [r1, #1]
     cfe:	709a      	strb	r2, [r3, #2]
     d00:	788a      	ldrb	r2, [r1, #2]
     d02:	0019      	movs	r1, r3
     d04:	70da      	strb	r2, [r3, #3]
     d06:	4b01      	ldr	r3, [pc, #4]	; (d0c <port_pin_set_config+0x1c>)
     d08:	4798      	blx	r3
     d0a:	bd07      	pop	{r0, r1, r2, pc}
     d0c:	000011ad 	.word	0x000011ad

00000d10 <_system_dfll_wait_for_sync>:
     d10:	2310      	movs	r3, #16
     d12:	4902      	ldr	r1, [pc, #8]	; (d1c <_system_dfll_wait_for_sync+0xc>)
     d14:	68ca      	ldr	r2, [r1, #12]
     d16:	421a      	tst	r2, r3
     d18:	d0fc      	beq.n	d14 <_system_dfll_wait_for_sync+0x4>
     d1a:	4770      	bx	lr
     d1c:	40000800 	.word	0x40000800

00000d20 <system_clock_source_enable.part.0>:
     d20:	2202      	movs	r2, #2
     d22:	b5f8      	push	{r3, r4, r5, r6, r7, lr}
     d24:	2600      	movs	r6, #0
     d26:	4d09      	ldr	r5, [pc, #36]	; (d4c <system_clock_source_enable.part.0+0x2c>)
     d28:	4c09      	ldr	r4, [pc, #36]	; (d50 <system_clock_source_enable.part.0+0x30>)
     d2a:	682b      	ldr	r3, [r5, #0]
     d2c:	4f09      	ldr	r7, [pc, #36]	; (d54 <system_clock_source_enable.part.0+0x34>)
     d2e:	4313      	orrs	r3, r2
     d30:	602b      	str	r3, [r5, #0]
     d32:	84a2      	strh	r2, [r4, #36]	; 0x24
     d34:	47b8      	blx	r7
     d36:	68ab      	ldr	r3, [r5, #8]
     d38:	62e3      	str	r3, [r4, #44]	; 0x2c
     d3a:	686b      	ldr	r3, [r5, #4]
     d3c:	62a3      	str	r3, [r4, #40]	; 0x28
     d3e:	84a6      	strh	r6, [r4, #36]	; 0x24
     d40:	47b8      	blx	r7
     d42:	682b      	ldr	r3, [r5, #0]
     d44:	0030      	movs	r0, r6
     d46:	b29b      	uxth	r3, r3
     d48:	84a3      	strh	r3, [r4, #36]	; 0x24
     d4a:	bdf8      	pop	{r3, r4, r5, r6, r7, pc}
     d4c:	20000134 	.word	0x20000134
     d50:	40000800 	.word	0x40000800
     d54:	00000d11 	.word	0x00000d11

00000d58 <system_clock_source_osc8m_set_config>:
     d58:	b570      	push	{r4, r5, r6, lr}
     d5a:	7884      	ldrb	r4, [r0, #2]
     d5c:	7802      	ldrb	r2, [r0, #0]
     d5e:	7845      	ldrb	r5, [r0, #1]
     d60:	2001      	movs	r0, #1
     d62:	2640      	movs	r6, #64	; 0x40
     d64:	4005      	ands	r5, r0
     d66:	4020      	ands	r0, r4
     d68:	2480      	movs	r4, #128	; 0x80
     d6a:	4908      	ldr	r1, [pc, #32]	; (d8c <system_clock_source_osc8m_set_config+0x34>)
     d6c:	01ad      	lsls	r5, r5, #6
     d6e:	6a0b      	ldr	r3, [r1, #32]
     d70:	01c0      	lsls	r0, r0, #7
     d72:	43b3      	bics	r3, r6
     d74:	432b      	orrs	r3, r5
     d76:	43a3      	bics	r3, r4
     d78:	4303      	orrs	r3, r0
     d7a:	2003      	movs	r0, #3
     d7c:	4002      	ands	r2, r0
     d7e:	4804      	ldr	r0, [pc, #16]	; (d90 <system_clock_source_osc8m_set_config+0x38>)
     d80:	0212      	lsls	r2, r2, #8
     d82:	4003      	ands	r3, r0
     d84:	4313      	orrs	r3, r2
     d86:	620b      	str	r3, [r1, #32]
     d88:	bd70      	pop	{r4, r5, r6, pc}
     d8a:	46c0      	nop			; (mov r8, r8)
     d8c:	40000800 	.word	0x40000800
     d90:	fffffcff 	.word	0xfffffcff

00000d94 <system_clock_source_dfll_set_config>:
     d94:	b510      	push	{r4, lr}
     d96:	7a02      	ldrb	r2, [r0, #8]
     d98:	8943      	ldrh	r3, [r0, #10]
     d9a:	0692      	lsls	r2, r2, #26
     d9c:	059b      	lsls	r3, r3, #22
     d9e:	0d9b      	lsrs	r3, r3, #22
     da0:	0c12      	lsrs	r2, r2, #16
     da2:	431a      	orrs	r2, r3
     da4:	4b17      	ldr	r3, [pc, #92]	; (e04 <system_clock_source_dfll_set_config+0x70>)
     da6:	605a      	str	r2, [r3, #4]
     da8:	79c1      	ldrb	r1, [r0, #7]
     daa:	7982      	ldrb	r2, [r0, #6]
     dac:	8884      	ldrh	r4, [r0, #4]
     dae:	430a      	orrs	r2, r1
     db0:	8841      	ldrh	r1, [r0, #2]
     db2:	4321      	orrs	r1, r4
     db4:	430a      	orrs	r2, r1
     db6:	7841      	ldrb	r1, [r0, #1]
     db8:	7804      	ldrb	r4, [r0, #0]
     dba:	01c9      	lsls	r1, r1, #7
     dbc:	430a      	orrs	r2, r1
     dbe:	601a      	str	r2, [r3, #0]
     dc0:	2c04      	cmp	r4, #4
     dc2:	d10d      	bne.n	de0 <system_clock_source_dfll_set_config+0x4c>
     dc4:	7b02      	ldrb	r2, [r0, #12]
     dc6:	8a01      	ldrh	r1, [r0, #16]
     dc8:	0692      	lsls	r2, r2, #26
     dca:	430a      	orrs	r2, r1
     dcc:	89c1      	ldrh	r1, [r0, #14]
     dce:	480e      	ldr	r0, [pc, #56]	; (e08 <system_clock_source_dfll_set_config+0x74>)
     dd0:	0409      	lsls	r1, r1, #16
     dd2:	4001      	ands	r1, r0
     dd4:	430a      	orrs	r2, r1
     dd6:	609a      	str	r2, [r3, #8]
     dd8:	681a      	ldr	r2, [r3, #0]
     dda:	4314      	orrs	r4, r2
     ddc:	601c      	str	r4, [r3, #0]
     dde:	bd10      	pop	{r4, pc}
     de0:	2c20      	cmp	r4, #32
     de2:	d1fc      	bne.n	dde <system_clock_source_dfll_set_config+0x4a>
     de4:	7b02      	ldrb	r2, [r0, #12]
     de6:	8a01      	ldrh	r1, [r0, #16]
     de8:	0692      	lsls	r2, r2, #26
     dea:	430a      	orrs	r2, r1
     dec:	89c1      	ldrh	r1, [r0, #14]
     dee:	4806      	ldr	r0, [pc, #24]	; (e08 <system_clock_source_dfll_set_config+0x74>)
     df0:	0409      	lsls	r1, r1, #16
     df2:	4001      	ands	r1, r0
     df4:	430a      	orrs	r2, r1
     df6:	609a      	str	r2, [r3, #8]
     df8:	6819      	ldr	r1, [r3, #0]
     dfa:	4a04      	ldr	r2, [pc, #16]	; (e0c <system_clock_source_dfll_set_config+0x78>)
     dfc:	430a      	orrs	r2, r1
     dfe:	601a      	str	r2, [r3, #0]
     e00:	e7ed      	b.n	dde <system_clock_source_dfll_set_config+0x4a>
     e02:	46c0      	nop			; (mov r8, r8)
     e04:	20000134 	.word	0x20000134
     e08:	03ff0000 	.word	0x03ff0000
     e0c:	00000424 	.word	0x00000424

00000e10 <system_clock_source_enable>:
     e10:	b510      	push	{r4, lr}
     e12:	2808      	cmp	r0, #8
     e14:	d806      	bhi.n	e24 <system_clock_source_enable+0x14>
     e16:	f001 ff51 	bl	2cbc <__gnu_thumb1_case_uqi>
     e1a:	0514      	.short	0x0514
     e1c:	1a0e0c05 	.word	0x1a0e0c05
     e20:	2007      	.short	0x2007
     e22:	23          	.byte	0x23
     e23:	00          	.byte	0x00
     e24:	2017      	movs	r0, #23
     e26:	bd10      	pop	{r4, pc}
     e28:	2302      	movs	r3, #2
     e2a:	4a10      	ldr	r2, [pc, #64]	; (e6c <system_clock_source_enable+0x5c>)
     e2c:	6a11      	ldr	r1, [r2, #32]
     e2e:	430b      	orrs	r3, r1
     e30:	6213      	str	r3, [r2, #32]
     e32:	2000      	movs	r0, #0
     e34:	e7f7      	b.n	e26 <system_clock_source_enable+0x16>
     e36:	2302      	movs	r3, #2
     e38:	4a0c      	ldr	r2, [pc, #48]	; (e6c <system_clock_source_enable+0x5c>)
     e3a:	6991      	ldr	r1, [r2, #24]
     e3c:	430b      	orrs	r3, r1
     e3e:	6193      	str	r3, [r2, #24]
     e40:	e7f7      	b.n	e32 <system_clock_source_enable+0x22>
     e42:	2302      	movs	r3, #2
     e44:	4a09      	ldr	r2, [pc, #36]	; (e6c <system_clock_source_enable+0x5c>)
     e46:	8a11      	ldrh	r1, [r2, #16]
     e48:	430b      	orrs	r3, r1
     e4a:	8213      	strh	r3, [r2, #16]
     e4c:	e7f1      	b.n	e32 <system_clock_source_enable+0x22>
     e4e:	2302      	movs	r3, #2
     e50:	4a06      	ldr	r2, [pc, #24]	; (e6c <system_clock_source_enable+0x5c>)
     e52:	8a91      	ldrh	r1, [r2, #20]
     e54:	430b      	orrs	r3, r1
     e56:	8293      	strh	r3, [r2, #20]
     e58:	e7eb      	b.n	e32 <system_clock_source_enable+0x22>
     e5a:	4b05      	ldr	r3, [pc, #20]	; (e70 <system_clock_source_enable+0x60>)
     e5c:	4798      	blx	r3
     e5e:	e7e2      	b.n	e26 <system_clock_source_enable+0x16>
     e60:	2302      	movs	r3, #2
     e62:	4a04      	ldr	r2, [pc, #16]	; (e74 <system_clock_source_enable+0x64>)
     e64:	7811      	ldrb	r1, [r2, #0]
     e66:	430b      	orrs	r3, r1
     e68:	7013      	strb	r3, [r2, #0]
     e6a:	e7e2      	b.n	e32 <system_clock_source_enable+0x22>
     e6c:	40000800 	.word	0x40000800
     e70:	00000d21 	.word	0x00000d21
     e74:	40000844 	.word	0x40000844

00000e78 <system_clock_init>:
     e78:	23c2      	movs	r3, #194	; 0xc2
     e7a:	221e      	movs	r2, #30
     e7c:	b570      	push	{r4, r5, r6, lr}
     e7e:	4d2f      	ldr	r5, [pc, #188]	; (f3c <system_clock_init+0xc4>)
     e80:	00db      	lsls	r3, r3, #3
     e82:	492f      	ldr	r1, [pc, #188]	; (f40 <system_clock_init+0xc8>)
     e84:	60ab      	str	r3, [r5, #8]
     e86:	684b      	ldr	r3, [r1, #4]
     e88:	2600      	movs	r6, #0
     e8a:	4393      	bics	r3, r2
     e8c:	001a      	movs	r2, r3
     e8e:	2304      	movs	r3, #4
     e90:	4313      	orrs	r3, r2
     e92:	604b      	str	r3, [r1, #4]
     e94:	2301      	movs	r3, #1
     e96:	b08a      	sub	sp, #40	; 0x28
     e98:	ac05      	add	r4, sp, #20
     e9a:	7023      	strb	r3, [r4, #0]
     e9c:	b2f0      	uxtb	r0, r6
     e9e:	0021      	movs	r1, r4
     ea0:	4b28      	ldr	r3, [pc, #160]	; (f44 <system_clock_init+0xcc>)
     ea2:	3601      	adds	r6, #1
     ea4:	4798      	blx	r3
     ea6:	2e25      	cmp	r6, #37	; 0x25
     ea8:	d1f8      	bne.n	e9c <system_clock_init+0x24>
     eaa:	2300      	movs	r3, #0
     eac:	2220      	movs	r2, #32
     eae:	8063      	strh	r3, [r4, #2]
     eb0:	71a3      	strb	r3, [r4, #6]
     eb2:	71e3      	strb	r3, [r4, #7]
     eb4:	7063      	strb	r3, [r4, #1]
     eb6:	4b24      	ldr	r3, [pc, #144]	; (f48 <system_clock_init+0xd0>)
     eb8:	7022      	strb	r2, [r4, #0]
     eba:	681b      	ldr	r3, [r3, #0]
     ebc:	0e9b      	lsrs	r3, r3, #26
     ebe:	2b3f      	cmp	r3, #63	; 0x3f
     ec0:	d100      	bne.n	ec4 <system_clock_init+0x4c>
     ec2:	3b20      	subs	r3, #32
     ec4:	7223      	strb	r3, [r4, #8]
     ec6:	2307      	movs	r3, #7
     ec8:	7323      	strb	r3, [r4, #12]
     eca:	3303      	adds	r3, #3
     ecc:	81e3      	strh	r3, [r4, #14]
     ece:	4b1f      	ldr	r3, [pc, #124]	; (f4c <system_clock_init+0xd4>)
     ed0:	0020      	movs	r0, r4
     ed2:	8163      	strh	r3, [r4, #10]
     ed4:	3bff      	subs	r3, #255	; 0xff
     ed6:	80a3      	strh	r3, [r4, #4]
     ed8:	4b1d      	ldr	r3, [pc, #116]	; (f50 <system_clock_init+0xd8>)
     eda:	8223      	strh	r3, [r4, #16]
     edc:	4b1d      	ldr	r3, [pc, #116]	; (f54 <system_clock_init+0xdc>)
     ede:	4798      	blx	r3
     ee0:	2300      	movs	r3, #0
     ee2:	2201      	movs	r2, #1
     ee4:	a801      	add	r0, sp, #4
     ee6:	7043      	strb	r3, [r0, #1]
     ee8:	7003      	strb	r3, [r0, #0]
     eea:	4b1b      	ldr	r3, [pc, #108]	; (f58 <system_clock_init+0xe0>)
     eec:	7082      	strb	r2, [r0, #2]
     eee:	4798      	blx	r3
     ef0:	4b1a      	ldr	r3, [pc, #104]	; (f5c <system_clock_init+0xe4>)
     ef2:	2006      	movs	r0, #6
     ef4:	4798      	blx	r3
     ef6:	4b1a      	ldr	r3, [pc, #104]	; (f60 <system_clock_init+0xe8>)
     ef8:	4798      	blx	r3
     efa:	4b1a      	ldr	r3, [pc, #104]	; (f64 <system_clock_init+0xec>)
     efc:	4798      	blx	r3
     efe:	2310      	movs	r3, #16
     f00:	68ea      	ldr	r2, [r5, #12]
     f02:	421a      	tst	r2, r3
     f04:	d0fc      	beq.n	f00 <system_clock_init+0x88>
     f06:	2380      	movs	r3, #128	; 0x80
     f08:	2400      	movs	r4, #0
     f0a:	8caa      	ldrh	r2, [r5, #36]	; 0x24
     f0c:	a902      	add	r1, sp, #8
     f0e:	4313      	orrs	r3, r2
     f10:	84ab      	strh	r3, [r5, #36]	; 0x24
     f12:	4b15      	ldr	r3, [pc, #84]	; (f68 <system_clock_init+0xf0>)
     f14:	2207      	movs	r2, #7
     f16:	721c      	strb	r4, [r3, #8]
     f18:	725c      	strb	r4, [r3, #9]
     f1a:	729c      	strb	r4, [r3, #10]
     f1c:	72dc      	strb	r4, [r3, #11]
     f1e:	2301      	movs	r3, #1
     f20:	0020      	movs	r0, r4
     f22:	604b      	str	r3, [r1, #4]
     f24:	720b      	strb	r3, [r1, #8]
     f26:	4b11      	ldr	r3, [pc, #68]	; (f6c <system_clock_init+0xf4>)
     f28:	704c      	strb	r4, [r1, #1]
     f2a:	724c      	strb	r4, [r1, #9]
     f2c:	700a      	strb	r2, [r1, #0]
     f2e:	4798      	blx	r3
     f30:	0020      	movs	r0, r4
     f32:	4b0f      	ldr	r3, [pc, #60]	; (f70 <system_clock_init+0xf8>)
     f34:	4798      	blx	r3
     f36:	b00a      	add	sp, #40	; 0x28
     f38:	bd70      	pop	{r4, r5, r6, pc}
     f3a:	46c0      	nop			; (mov r8, r8)
     f3c:	40000800 	.word	0x40000800
     f40:	41004000 	.word	0x41004000
     f44:	0000110d 	.word	0x0000110d
     f48:	00806024 	.word	0x00806024
     f4c:	000001ff 	.word	0x000001ff
     f50:	ffffbb80 	.word	0xffffbb80
     f54:	00000d95 	.word	0x00000d95
     f58:	00000d59 	.word	0x00000d59
     f5c:	00000e11 	.word	0x00000e11
     f60:	00000f81 	.word	0x00000f81
     f64:	00000d21 	.word	0x00000d21
     f68:	40000400 	.word	0x40000400
     f6c:	00000fa1 	.word	0x00000fa1
     f70:	00001045 	.word	0x00001045

00000f74 <system_gclk_is_syncing>:
     f74:	4b01      	ldr	r3, [pc, #4]	; (f7c <system_gclk_is_syncing+0x8>)
     f76:	7858      	ldrb	r0, [r3, #1]
     f78:	09c0      	lsrs	r0, r0, #7
     f7a:	4770      	bx	lr
     f7c:	40000c00 	.word	0x40000c00

00000f80 <system_gclk_init>:
     f80:	2308      	movs	r3, #8
     f82:	4a05      	ldr	r2, [pc, #20]	; (f98 <system_gclk_init+0x18>)
     f84:	6991      	ldr	r1, [r2, #24]
     f86:	430b      	orrs	r3, r1
     f88:	6193      	str	r3, [r2, #24]
     f8a:	2301      	movs	r3, #1
     f8c:	4a03      	ldr	r2, [pc, #12]	; (f9c <system_gclk_init+0x1c>)
     f8e:	7013      	strb	r3, [r2, #0]
     f90:	7811      	ldrb	r1, [r2, #0]
     f92:	4219      	tst	r1, r3
     f94:	d1fc      	bne.n	f90 <system_gclk_init+0x10>
     f96:	4770      	bx	lr
     f98:	40000400 	.word	0x40000400
     f9c:	40000c00 	.word	0x40000c00

00000fa0 <system_gclk_gen_set_config>:
     fa0:	b5f8      	push	{r3, r4, r5, r6, r7, lr}
     fa2:	780c      	ldrb	r4, [r1, #0]
     fa4:	784b      	ldrb	r3, [r1, #1]
     fa6:	0224      	lsls	r4, r4, #8
     fa8:	0006      	movs	r6, r0
     faa:	0005      	movs	r5, r0
     fac:	4304      	orrs	r4, r0
     fae:	2b00      	cmp	r3, #0
     fb0:	d002      	beq.n	fb8 <system_gclk_gen_set_config+0x18>
     fb2:	2380      	movs	r3, #128	; 0x80
     fb4:	02db      	lsls	r3, r3, #11
     fb6:	431c      	orrs	r4, r3
     fb8:	7a4b      	ldrb	r3, [r1, #9]
     fba:	2b00      	cmp	r3, #0
     fbc:	d002      	beq.n	fc4 <system_gclk_gen_set_config+0x24>
     fbe:	2380      	movs	r3, #128	; 0x80
     fc0:	031b      	lsls	r3, r3, #12
     fc2:	431c      	orrs	r4, r3
     fc4:	684b      	ldr	r3, [r1, #4]
     fc6:	2b01      	cmp	r3, #1
     fc8:	d912      	bls.n	ff0 <system_gclk_gen_set_config+0x50>
     fca:	1e5d      	subs	r5, r3, #1
     fcc:	401d      	ands	r5, r3
     fce:	2202      	movs	r2, #2
     fd0:	2d00      	cmp	r5, #0
     fd2:	d006      	beq.n	fe2 <system_gclk_gen_set_config+0x42>
     fd4:	021d      	lsls	r5, r3, #8
     fd6:	2380      	movs	r3, #128	; 0x80
     fd8:	4335      	orrs	r5, r6
     fda:	029b      	lsls	r3, r3, #10
     fdc:	e007      	b.n	fee <system_gclk_gen_set_config+0x4e>
     fde:	3501      	adds	r5, #1
     fe0:	0052      	lsls	r2, r2, #1
     fe2:	429a      	cmp	r2, r3
     fe4:	d3fb      	bcc.n	fde <system_gclk_gen_set_config+0x3e>
     fe6:	2380      	movs	r3, #128	; 0x80
     fe8:	022d      	lsls	r5, r5, #8
     fea:	4335      	orrs	r5, r6
     fec:	035b      	lsls	r3, r3, #13
     fee:	431c      	orrs	r4, r3
     ff0:	7a0b      	ldrb	r3, [r1, #8]
     ff2:	2b00      	cmp	r3, #0
     ff4:	d002      	beq.n	ffc <system_gclk_gen_set_config+0x5c>
     ff6:	2380      	movs	r3, #128	; 0x80
     ff8:	039b      	lsls	r3, r3, #14
     ffa:	431c      	orrs	r4, r3
     ffc:	4f0c      	ldr	r7, [pc, #48]	; (1030 <system_gclk_gen_set_config+0x90>)
     ffe:	47b8      	blx	r7
    1000:	2800      	cmp	r0, #0
    1002:	d1fb      	bne.n	ffc <system_gclk_gen_set_config+0x5c>
    1004:	4b0b      	ldr	r3, [pc, #44]	; (1034 <system_gclk_gen_set_config+0x94>)
    1006:	4798      	blx	r3
    1008:	4b0b      	ldr	r3, [pc, #44]	; (1038 <system_gclk_gen_set_config+0x98>)
    100a:	701e      	strb	r6, [r3, #0]
    100c:	47b8      	blx	r7
    100e:	2800      	cmp	r0, #0
    1010:	d1fc      	bne.n	100c <system_gclk_gen_set_config+0x6c>
    1012:	4b0a      	ldr	r3, [pc, #40]	; (103c <system_gclk_gen_set_config+0x9c>)
    1014:	609d      	str	r5, [r3, #8]
    1016:	001d      	movs	r5, r3
    1018:	47b8      	blx	r7
    101a:	2800      	cmp	r0, #0
    101c:	d1fc      	bne.n	1018 <system_gclk_gen_set_config+0x78>
    101e:	2280      	movs	r2, #128	; 0x80
    1020:	686b      	ldr	r3, [r5, #4]
    1022:	0252      	lsls	r2, r2, #9
    1024:	4013      	ands	r3, r2
    1026:	431c      	orrs	r4, r3
    1028:	606c      	str	r4, [r5, #4]
    102a:	4b05      	ldr	r3, [pc, #20]	; (1040 <system_gclk_gen_set_config+0xa0>)
    102c:	4798      	blx	r3
    102e:	bdf8      	pop	{r3, r4, r5, r6, r7, pc}
    1030:	00000f75 	.word	0x00000f75
    1034:	00000a99 	.word	0x00000a99
    1038:	40000c08 	.word	0x40000c08
    103c:	40000c00 	.word	0x40000c00
    1040:	00000acd 	.word	0x00000acd

00001044 <system_gclk_gen_enable>:
    1044:	b570      	push	{r4, r5, r6, lr}
    1046:	0005      	movs	r5, r0
    1048:	4c09      	ldr	r4, [pc, #36]	; (1070 <system_gclk_gen_enable+0x2c>)
    104a:	47a0      	blx	r4
    104c:	2800      	cmp	r0, #0
    104e:	d1fb      	bne.n	1048 <system_gclk_gen_enable+0x4>
    1050:	4b08      	ldr	r3, [pc, #32]	; (1074 <system_gclk_gen_enable+0x30>)
    1052:	4798      	blx	r3
    1054:	4b08      	ldr	r3, [pc, #32]	; (1078 <system_gclk_gen_enable+0x34>)
    1056:	701d      	strb	r5, [r3, #0]
    1058:	47a0      	blx	r4
    105a:	2800      	cmp	r0, #0
    105c:	d1fc      	bne.n	1058 <system_gclk_gen_enable+0x14>
    105e:	2380      	movs	r3, #128	; 0x80
    1060:	4a06      	ldr	r2, [pc, #24]	; (107c <system_gclk_gen_enable+0x38>)
    1062:	025b      	lsls	r3, r3, #9
    1064:	6851      	ldr	r1, [r2, #4]
    1066:	430b      	orrs	r3, r1
    1068:	6053      	str	r3, [r2, #4]
    106a:	4b05      	ldr	r3, [pc, #20]	; (1080 <system_gclk_gen_enable+0x3c>)
    106c:	4798      	blx	r3
    106e:	bd70      	pop	{r4, r5, r6, pc}
    1070:	00000f75 	.word	0x00000f75
    1074:	00000a99 	.word	0x00000a99
    1078:	40000c04 	.word	0x40000c04
    107c:	40000c00 	.word	0x40000c00
    1080:	00000acd 	.word	0x00000acd

00001084 <system_gclk_chan_enable>:
    1084:	b510      	push	{r4, lr}
    1086:	0004      	movs	r4, r0
    1088:	4b06      	ldr	r3, [pc, #24]	; (10a4 <system_gclk_chan_enable+0x20>)
    108a:	4798      	blx	r3
    108c:	4b06      	ldr	r3, [pc, #24]	; (10a8 <system_gclk_chan_enable+0x24>)
    108e:	4a07      	ldr	r2, [pc, #28]	; (10ac <system_gclk_chan_enable+0x28>)
    1090:	701c      	strb	r4, [r3, #0]
    1092:	2380      	movs	r3, #128	; 0x80
    1094:	8851      	ldrh	r1, [r2, #2]
    1096:	01db      	lsls	r3, r3, #7
    1098:	430b      	orrs	r3, r1
    109a:	8053      	strh	r3, [r2, #2]
    109c:	4b04      	ldr	r3, [pc, #16]	; (10b0 <system_gclk_chan_enable+0x2c>)
    109e:	4798      	blx	r3
    10a0:	bd10      	pop	{r4, pc}
    10a2:	46c0      	nop			; (mov r8, r8)
    10a4:	00000a99 	.word	0x00000a99
    10a8:	40000c02 	.word	0x40000c02
    10ac:	40000c00 	.word	0x40000c00
    10b0:	00000acd 	.word	0x00000acd

000010b4 <system_gclk_chan_disable>:
    10b4:	b510      	push	{r4, lr}
    10b6:	0004      	movs	r4, r0
    10b8:	4b0e      	ldr	r3, [pc, #56]	; (10f4 <system_gclk_chan_disable+0x40>)
    10ba:	4798      	blx	r3
    10bc:	4b0e      	ldr	r3, [pc, #56]	; (10f8 <system_gclk_chan_disable+0x44>)
    10be:	4a0f      	ldr	r2, [pc, #60]	; (10fc <system_gclk_chan_disable+0x48>)
    10c0:	701c      	strb	r4, [r3, #0]
    10c2:	4b0f      	ldr	r3, [pc, #60]	; (1100 <system_gclk_chan_disable+0x4c>)
    10c4:	4c0f      	ldr	r4, [pc, #60]	; (1104 <system_gclk_chan_disable+0x50>)
    10c6:	8858      	ldrh	r0, [r3, #2]
    10c8:	8859      	ldrh	r1, [r3, #2]
    10ca:	0500      	lsls	r0, r0, #20
    10cc:	4011      	ands	r1, r2
    10ce:	8059      	strh	r1, [r3, #2]
    10d0:	8859      	ldrh	r1, [r3, #2]
    10d2:	0f00      	lsrs	r0, r0, #28
    10d4:	4021      	ands	r1, r4
    10d6:	8059      	strh	r1, [r3, #2]
    10d8:	0011      	movs	r1, r2
    10da:	2280      	movs	r2, #128	; 0x80
    10dc:	01d2      	lsls	r2, r2, #7
    10de:	885c      	ldrh	r4, [r3, #2]
    10e0:	4214      	tst	r4, r2
    10e2:	d1fc      	bne.n	10de <system_gclk_chan_disable+0x2a>
    10e4:	885a      	ldrh	r2, [r3, #2]
    10e6:	0200      	lsls	r0, r0, #8
    10e8:	400a      	ands	r2, r1
    10ea:	4302      	orrs	r2, r0
    10ec:	805a      	strh	r2, [r3, #2]
    10ee:	4b06      	ldr	r3, [pc, #24]	; (1108 <system_gclk_chan_disable+0x54>)
    10f0:	4798      	blx	r3
    10f2:	bd10      	pop	{r4, pc}
    10f4:	00000a99 	.word	0x00000a99
    10f8:	40000c02 	.word	0x40000c02
    10fc:	fffff0ff 	.word	0xfffff0ff
    1100:	40000c00 	.word	0x40000c00
    1104:	ffffbfff 	.word	0xffffbfff
    1108:	00000acd 	.word	0x00000acd

0000110c <system_gclk_chan_set_config>:
    110c:	b510      	push	{r4, lr}
    110e:	780c      	ldrb	r4, [r1, #0]
    1110:	4b03      	ldr	r3, [pc, #12]	; (1120 <system_gclk_chan_set_config+0x14>)
    1112:	0224      	lsls	r4, r4, #8
    1114:	4304      	orrs	r4, r0
    1116:	4798      	blx	r3
    1118:	4b02      	ldr	r3, [pc, #8]	; (1124 <system_gclk_chan_set_config+0x18>)
    111a:	b2a4      	uxth	r4, r4
    111c:	805c      	strh	r4, [r3, #2]
    111e:	bd10      	pop	{r4, pc}
    1120:	000010b5 	.word	0x000010b5
    1124:	40000c00 	.word	0x40000c00

00001128 <_system_pinmux_config>:
    1128:	78d3      	ldrb	r3, [r2, #3]
    112a:	b530      	push	{r4, r5, lr}
    112c:	2b00      	cmp	r3, #0
    112e:	d135      	bne.n	119c <_system_pinmux_config+0x74>
    1130:	7814      	ldrb	r4, [r2, #0]
    1132:	2c80      	cmp	r4, #128	; 0x80
    1134:	d003      	beq.n	113e <_system_pinmux_config+0x16>
    1136:	2380      	movs	r3, #128	; 0x80
    1138:	0624      	lsls	r4, r4, #24
    113a:	025b      	lsls	r3, r3, #9
    113c:	4323      	orrs	r3, r4
    113e:	2502      	movs	r5, #2
    1140:	7854      	ldrb	r4, [r2, #1]
    1142:	43ac      	bics	r4, r5
    1144:	d106      	bne.n	1154 <_system_pinmux_config+0x2c>
    1146:	7894      	ldrb	r4, [r2, #2]
    1148:	2c00      	cmp	r4, #0
    114a:	d124      	bne.n	1196 <_system_pinmux_config+0x6e>
    114c:	2480      	movs	r4, #128	; 0x80
    114e:	02a4      	lsls	r4, r4, #10
    1150:	4323      	orrs	r3, r4
    1152:	6041      	str	r1, [r0, #4]
    1154:	7854      	ldrb	r4, [r2, #1]
    1156:	3c01      	subs	r4, #1
    1158:	2c01      	cmp	r4, #1
    115a:	d801      	bhi.n	1160 <_system_pinmux_config+0x38>
    115c:	4c12      	ldr	r4, [pc, #72]	; (11a8 <_system_pinmux_config+0x80>)
    115e:	4023      	ands	r3, r4
    1160:	24a0      	movs	r4, #160	; 0xa0
    1162:	b28d      	uxth	r5, r1
    1164:	05e4      	lsls	r4, r4, #23
    1166:	432c      	orrs	r4, r5
    1168:	431c      	orrs	r4, r3
    116a:	6284      	str	r4, [r0, #40]	; 0x28
    116c:	24d0      	movs	r4, #208	; 0xd0
    116e:	0c0d      	lsrs	r5, r1, #16
    1170:	0624      	lsls	r4, r4, #24
    1172:	432c      	orrs	r4, r5
    1174:	431c      	orrs	r4, r3
    1176:	6284      	str	r4, [r0, #40]	; 0x28
    1178:	78d4      	ldrb	r4, [r2, #3]
    117a:	2c00      	cmp	r4, #0
    117c:	d10a      	bne.n	1194 <_system_pinmux_config+0x6c>
    117e:	035b      	lsls	r3, r3, #13
    1180:	d503      	bpl.n	118a <_system_pinmux_config+0x62>
    1182:	7893      	ldrb	r3, [r2, #2]
    1184:	2b01      	cmp	r3, #1
    1186:	d10c      	bne.n	11a2 <_system_pinmux_config+0x7a>
    1188:	6181      	str	r1, [r0, #24]
    118a:	7853      	ldrb	r3, [r2, #1]
    118c:	3b01      	subs	r3, #1
    118e:	2b01      	cmp	r3, #1
    1190:	d800      	bhi.n	1194 <_system_pinmux_config+0x6c>
    1192:	6081      	str	r1, [r0, #8]
    1194:	bd30      	pop	{r4, r5, pc}
    1196:	24c0      	movs	r4, #192	; 0xc0
    1198:	02e4      	lsls	r4, r4, #11
    119a:	e7d9      	b.n	1150 <_system_pinmux_config+0x28>
    119c:	6041      	str	r1, [r0, #4]
    119e:	2300      	movs	r3, #0
    11a0:	e7de      	b.n	1160 <_system_pinmux_config+0x38>
    11a2:	6141      	str	r1, [r0, #20]
    11a4:	e7f1      	b.n	118a <_system_pinmux_config+0x62>
    11a6:	46c0      	nop			; (mov r8, r8)
    11a8:	fffbffff 	.word	0xfffbffff

000011ac <system_pinmux_pin_set_config>:
    11ac:	b510      	push	{r4, lr}
    11ae:	0003      	movs	r3, r0
    11b0:	000a      	movs	r2, r1
    11b2:	0944      	lsrs	r4, r0, #5
    11b4:	09c1      	lsrs	r1, r0, #7
    11b6:	2000      	movs	r0, #0
    11b8:	4281      	cmp	r1, r0
    11ba:	d102      	bne.n	11c2 <system_pinmux_pin_set_config+0x16>
    11bc:	4904      	ldr	r1, [pc, #16]	; (11d0 <system_pinmux_pin_set_config+0x24>)
    11be:	01e0      	lsls	r0, r4, #7
    11c0:	1840      	adds	r0, r0, r1
    11c2:	211f      	movs	r1, #31
    11c4:	400b      	ands	r3, r1
    11c6:	391e      	subs	r1, #30
    11c8:	4099      	lsls	r1, r3
    11ca:	4b02      	ldr	r3, [pc, #8]	; (11d4 <system_pinmux_pin_set_config+0x28>)
    11cc:	4798      	blx	r3
    11ce:	bd10      	pop	{r4, pc}
    11d0:	41004400 	.word	0x41004400
    11d4:	00001129 	.word	0x00001129

000011d8 <_system_dummy_init>:
    11d8:	4770      	bx	lr
	...

000011dc <system_init>:
    11dc:	b510      	push	{r4, lr}
    11de:	4b05      	ldr	r3, [pc, #20]	; (11f4 <system_init+0x18>)
    11e0:	4798      	blx	r3
    11e2:	4b05      	ldr	r3, [pc, #20]	; (11f8 <system_init+0x1c>)
    11e4:	4798      	blx	r3
    11e6:	4b05      	ldr	r3, [pc, #20]	; (11fc <system_init+0x20>)
    11e8:	4798      	blx	r3
    11ea:	4b05      	ldr	r3, [pc, #20]	; (1200 <system_init+0x24>)
    11ec:	4798      	blx	r3
    11ee:	4b05      	ldr	r3, [pc, #20]	; (1204 <system_init+0x28>)
    11f0:	4798      	blx	r3
    11f2:	bd10      	pop	{r4, pc}
    11f4:	00000e79 	.word	0x00000e79
    11f8:	00000afd 	.word	0x00000afd
    11fc:	000011d9 	.word	0x000011d9
    1200:	00000c05 	.word	0x00000c05
    1204:	000011d9 	.word	0x000011d9

00001208 <cpu_irq_save>:
    1208:	b082      	sub	sp, #8
    120a:	f3ef 8310 	mrs	r3, PRIMASK
    120e:	425a      	negs	r2, r3
    1210:	4153      	adcs	r3, r2
    1212:	9301      	str	r3, [sp, #4]
    1214:	b672      	cpsid	i
    1216:	f3bf 8f5f 	dmb	sy
    121a:	2200      	movs	r2, #0
    121c:	4b02      	ldr	r3, [pc, #8]	; (1228 <cpu_irq_save+0x20>)
    121e:	701a      	strb	r2, [r3, #0]
    1220:	9801      	ldr	r0, [sp, #4]
    1222:	b002      	add	sp, #8
    1224:	4770      	bx	lr
    1226:	46c0      	nop			; (mov r8, r8)
    1228:	200000d7 	.word	0x200000d7

0000122c <udd_ep_get_job>:
    122c:	227f      	movs	r2, #127	; 0x7f
    122e:	4002      	ands	r2, r0
    1230:	1e13      	subs	r3, r2, #0
    1232:	d009      	beq.n	1248 <udd_ep_get_job+0x1c>
    1234:	230f      	movs	r3, #15
    1236:	4003      	ands	r3, r0
    1238:	005b      	lsls	r3, r3, #1
    123a:	09c0      	lsrs	r0, r0, #7
    123c:	1818      	adds	r0, r3, r0
    123e:	2314      	movs	r3, #20
    1240:	3802      	subs	r0, #2
    1242:	4358      	muls	r0, r3
    1244:	4b01      	ldr	r3, [pc, #4]	; (124c <udd_ep_get_job+0x20>)
    1246:	181b      	adds	r3, r3, r0
    1248:	0018      	movs	r0, r3
    124a:	4770      	bx	lr
    124c:	20000154 	.word	0x20000154

00001250 <udd_ep_transfer_process>:
    1250:	b5f0      	push	{r4, r5, r6, r7, lr}
    1252:	798d      	ldrb	r5, [r1, #6]
    1254:	b085      	sub	sp, #20
    1256:	b26a      	sxtb	r2, r5
    1258:	000e      	movs	r6, r1
    125a:	4b54      	ldr	r3, [pc, #336]	; (13ac <udd_ep_transfer_process+0x15c>)
    125c:	0028      	movs	r0, r5
    125e:	2a00      	cmp	r2, #0
    1260:	da48      	bge.n	12f4 <udd_ep_transfer_process+0xa4>
    1262:	270f      	movs	r7, #15
    1264:	4798      	blx	r3
    1266:	402f      	ands	r7, r5
    1268:	9701      	str	r7, [sp, #4]
    126a:	8a03      	ldrh	r3, [r0, #16]
    126c:	6881      	ldr	r1, [r0, #8]
    126e:	9302      	str	r3, [sp, #8]
    1270:	8876      	ldrh	r6, [r6, #2]
    1272:	68c3      	ldr	r3, [r0, #12]
    1274:	0004      	movs	r4, r0
    1276:	18f6      	adds	r6, r6, r3
    1278:	60c6      	str	r6, [r0, #12]
    127a:	7c87      	ldrb	r7, [r0, #18]
    127c:	428e      	cmp	r6, r1
    127e:	d025      	beq.n	12cc <udd_ep_transfer_process+0x7c>
    1280:	1b8d      	subs	r5, r1, r6
    1282:	4b4b      	ldr	r3, [pc, #300]	; (13b0 <udd_ep_transfer_process+0x160>)
    1284:	b2ad      	uxth	r5, r5
    1286:	429d      	cmp	r5, r3
    1288:	d906      	bls.n	1298 <udd_ep_transfer_process+0x48>
    128a:	0018      	movs	r0, r3
    128c:	9902      	ldr	r1, [sp, #8]
    128e:	4b49      	ldr	r3, [pc, #292]	; (13b4 <udd_ep_transfer_process+0x164>)
    1290:	4798      	blx	r3
    1292:	4b47      	ldr	r3, [pc, #284]	; (13b0 <udd_ep_transfer_process+0x160>)
    1294:	1a5d      	subs	r5, r3, r1
    1296:	b2ad      	uxth	r5, r5
    1298:	2100      	movs	r1, #0
    129a:	07bb      	lsls	r3, r7, #30
    129c:	d507      	bpl.n	12ae <udd_ep_transfer_process+0x5e>
    129e:	4b46      	ldr	r3, [pc, #280]	; (13b8 <udd_ep_transfer_process+0x168>)
    12a0:	9902      	ldr	r1, [sp, #8]
    12a2:	0028      	movs	r0, r5
    12a4:	4798      	blx	r3
    12a6:	b28b      	uxth	r3, r1
    12a8:	4259      	negs	r1, r3
    12aa:	4159      	adcs	r1, r3
    12ac:	b2c9      	uxtb	r1, r1
    12ae:	2202      	movs	r2, #2
    12b0:	7ca3      	ldrb	r3, [r4, #18]
    12b2:	0049      	lsls	r1, r1, #1
    12b4:	4393      	bics	r3, r2
    12b6:	4319      	orrs	r1, r3
    12b8:	002b      	movs	r3, r5
    12ba:	6862      	ldr	r2, [r4, #4]
    12bc:	74a1      	strb	r1, [r4, #18]
    12be:	1992      	adds	r2, r2, r6
    12c0:	9901      	ldr	r1, [sp, #4]
    12c2:	483e      	ldr	r0, [pc, #248]	; (13bc <udd_ep_transfer_process+0x16c>)
    12c4:	4c3e      	ldr	r4, [pc, #248]	; (13c0 <udd_ep_transfer_process+0x170>)
    12c6:	47a0      	blx	r4
    12c8:	b005      	add	sp, #20
    12ca:	bdf0      	pop	{r4, r5, r6, r7, pc}
    12cc:	2302      	movs	r3, #2
    12ce:	0038      	movs	r0, r7
    12d0:	4018      	ands	r0, r3
    12d2:	d005      	beq.n	12e0 <udd_ep_transfer_process+0x90>
    12d4:	6862      	ldr	r2, [r4, #4]
    12d6:	439f      	bics	r7, r3
    12d8:	74a7      	strb	r7, [r4, #18]
    12da:	1992      	adds	r2, r2, r6
    12dc:	2300      	movs	r3, #0
    12de:	e7ef      	b.n	12c0 <udd_ep_transfer_process+0x70>
    12e0:	2301      	movs	r3, #1
    12e2:	439f      	bics	r7, r3
    12e4:	6823      	ldr	r3, [r4, #0]
    12e6:	74a7      	strb	r7, [r4, #18]
    12e8:	2b00      	cmp	r3, #0
    12ea:	d0ed      	beq.n	12c8 <udd_ep_transfer_process+0x78>
    12ec:	002a      	movs	r2, r5
    12ee:	0031      	movs	r1, r6
    12f0:	4798      	blx	r3
    12f2:	e7e9      	b.n	12c8 <udd_ep_transfer_process+0x78>
    12f4:	4798      	blx	r3
    12f6:	230f      	movs	r3, #15
    12f8:	402b      	ands	r3, r5
    12fa:	9302      	str	r3, [sp, #8]
    12fc:	8a03      	ldrh	r3, [r0, #16]
    12fe:	0004      	movs	r4, r0
    1300:	9301      	str	r3, [sp, #4]
    1302:	7c83      	ldrb	r3, [r0, #18]
    1304:	8837      	ldrh	r7, [r6, #0]
    1306:	075b      	lsls	r3, r3, #29
    1308:	d511      	bpl.n	132e <udd_ep_transfer_process+0xde>
    130a:	68c2      	ldr	r2, [r0, #12]
    130c:	6843      	ldr	r3, [r0, #4]
    130e:	4694      	mov	ip, r2
    1310:	4463      	add	r3, ip
    1312:	9303      	str	r3, [sp, #12]
    1314:	9901      	ldr	r1, [sp, #4]
    1316:	4b28      	ldr	r3, [pc, #160]	; (13b8 <udd_ep_transfer_process+0x168>)
    1318:	6880      	ldr	r0, [r0, #8]
    131a:	4798      	blx	r3
    131c:	9b02      	ldr	r3, [sp, #8]
    131e:	000a      	movs	r2, r1
    1320:	3b01      	subs	r3, #1
    1322:	4928      	ldr	r1, [pc, #160]	; (13c4 <udd_ep_transfer_process+0x174>)
    1324:	019b      	lsls	r3, r3, #6
    1326:	1859      	adds	r1, r3, r1
    1328:	9803      	ldr	r0, [sp, #12]
    132a:	4b27      	ldr	r3, [pc, #156]	; (13c8 <udd_ep_transfer_process+0x178>)
    132c:	4798      	blx	r3
    132e:	68e3      	ldr	r3, [r4, #12]
    1330:	18fa      	adds	r2, r7, r3
    1332:	68a3      	ldr	r3, [r4, #8]
    1334:	60e2      	str	r2, [r4, #12]
    1336:	429a      	cmp	r2, r3
    1338:	d900      	bls.n	133c <udd_ep_transfer_process+0xec>
    133a:	60e3      	str	r3, [r4, #12]
    133c:	88b2      	ldrh	r2, [r6, #4]
    133e:	42ba      	cmp	r2, r7
    1340:	d127      	bne.n	1392 <udd_ep_transfer_process+0x142>
    1342:	68e6      	ldr	r6, [r4, #12]
    1344:	42b3      	cmp	r3, r6
    1346:	d024      	beq.n	1392 <udd_ep_transfer_process+0x142>
    1348:	1b9d      	subs	r5, r3, r6
    134a:	4f19      	ldr	r7, [pc, #100]	; (13b0 <udd_ep_transfer_process+0x160>)
    134c:	b2ad      	uxth	r5, r5
    134e:	9901      	ldr	r1, [sp, #4]
    1350:	42bd      	cmp	r5, r7
    1352:	d916      	bls.n	1382 <udd_ep_transfer_process+0x132>
    1354:	4b17      	ldr	r3, [pc, #92]	; (13b4 <udd_ep_transfer_process+0x164>)
    1356:	0038      	movs	r0, r7
    1358:	4798      	blx	r3
    135a:	1a7b      	subs	r3, r7, r1
    135c:	9a01      	ldr	r2, [sp, #4]
    135e:	b29b      	uxth	r3, r3
    1360:	4816      	ldr	r0, [pc, #88]	; (13bc <udd_ep_transfer_process+0x16c>)
    1362:	4f1a      	ldr	r7, [pc, #104]	; (13cc <udd_ep_transfer_process+0x17c>)
    1364:	429a      	cmp	r2, r3
    1366:	d911      	bls.n	138c <udd_ep_transfer_process+0x13c>
    1368:	2304      	movs	r3, #4
    136a:	7ca2      	ldrb	r2, [r4, #18]
    136c:	4313      	orrs	r3, r2
    136e:	74a3      	strb	r3, [r4, #18]
    1370:	9b02      	ldr	r3, [sp, #8]
    1372:	1e5a      	subs	r2, r3, #1
    1374:	4b13      	ldr	r3, [pc, #76]	; (13c4 <udd_ep_transfer_process+0x174>)
    1376:	0192      	lsls	r2, r2, #6
    1378:	18d2      	adds	r2, r2, r3
    137a:	9b01      	ldr	r3, [sp, #4]
    137c:	9902      	ldr	r1, [sp, #8]
    137e:	47b8      	blx	r7
    1380:	e7a2      	b.n	12c8 <udd_ep_transfer_process+0x78>
    1382:	4b0d      	ldr	r3, [pc, #52]	; (13b8 <udd_ep_transfer_process+0x168>)
    1384:	0028      	movs	r0, r5
    1386:	4798      	blx	r3
    1388:	1a6b      	subs	r3, r5, r1
    138a:	e7e7      	b.n	135c <udd_ep_transfer_process+0x10c>
    138c:	6862      	ldr	r2, [r4, #4]
    138e:	1992      	adds	r2, r2, r6
    1390:	e7f4      	b.n	137c <udd_ep_transfer_process+0x12c>
    1392:	2201      	movs	r2, #1
    1394:	7ca3      	ldrb	r3, [r4, #18]
    1396:	4393      	bics	r3, r2
    1398:	74a3      	strb	r3, [r4, #18]
    139a:	6823      	ldr	r3, [r4, #0]
    139c:	2b00      	cmp	r3, #0
    139e:	d100      	bne.n	13a2 <udd_ep_transfer_process+0x152>
    13a0:	e792      	b.n	12c8 <udd_ep_transfer_process+0x78>
    13a2:	002a      	movs	r2, r5
    13a4:	68e1      	ldr	r1, [r4, #12]
    13a6:	2000      	movs	r0, #0
    13a8:	e7a2      	b.n	12f0 <udd_ep_transfer_process+0xa0>
    13aa:	46c0      	nop			; (mov r8, r8)
    13ac:	0000122d 	.word	0x0000122d
    13b0:	00001fff 	.word	0x00001fff
    13b4:	00002fc5 	.word	0x00002fc5
    13b8:	00002df1 	.word	0x00002df1
    13bc:	20000220 	.word	0x20000220
    13c0:	00002245 	.word	0x00002245
    13c4:	200001e0 	.word	0x200001e0
    13c8:	00003059 	.word	0x00003059
    13cc:	00002291 	.word	0x00002291

000013d0 <udd_ctrl_stall_data>:
    13d0:	2205      	movs	r2, #5
    13d2:	b510      	push	{r4, lr}
    13d4:	4b05      	ldr	r3, [pc, #20]	; (13ec <udd_ctrl_stall_data+0x1c>)
    13d6:	4c06      	ldr	r4, [pc, #24]	; (13f0 <udd_ctrl_stall_data+0x20>)
    13d8:	701a      	strb	r2, [r3, #0]
    13da:	0020      	movs	r0, r4
    13dc:	2180      	movs	r1, #128	; 0x80
    13de:	4b05      	ldr	r3, [pc, #20]	; (13f4 <udd_ctrl_stall_data+0x24>)
    13e0:	4798      	blx	r3
    13e2:	2100      	movs	r1, #0
    13e4:	0020      	movs	r0, r4
    13e6:	4b04      	ldr	r3, [pc, #16]	; (13f8 <udd_ctrl_stall_data+0x28>)
    13e8:	4798      	blx	r3
    13ea:	bd10      	pop	{r4, pc}
    13ec:	20000152 	.word	0x20000152
    13f0:	20000220 	.word	0x20000220
    13f4:	000021cb 	.word	0x000021cb
    13f8:	000021e5 	.word	0x000021e5

000013fc <_usb_on_bus_reset>:
    13fc:	b573      	push	{r0, r1, r4, r5, r6, lr}
    13fe:	0005      	movs	r5, r0
    1400:	4b1d      	ldr	r3, [pc, #116]	; (1478 <_usb_on_bus_reset+0x7c>)
    1402:	4798      	blx	r3
    1404:	2380      	movs	r3, #128	; 0x80
    1406:	2400      	movs	r4, #0
    1408:	682a      	ldr	r2, [r5, #0]
    140a:	ae01      	add	r6, sp, #4
    140c:	7293      	strb	r3, [r2, #10]
    140e:	0030      	movs	r0, r6
    1410:	4b1a      	ldr	r3, [pc, #104]	; (147c <_usb_on_bus_reset+0x80>)
    1412:	4798      	blx	r3
    1414:	0031      	movs	r1, r6
    1416:	0028      	movs	r0, r5
    1418:	4b19      	ldr	r3, [pc, #100]	; (1480 <_usb_on_bus_reset+0x84>)
    141a:	7074      	strb	r4, [r6, #1]
    141c:	4798      	blx	r3
    141e:	0028      	movs	r0, r5
    1420:	4918      	ldr	r1, [pc, #96]	; (1484 <_usb_on_bus_reset+0x88>)
    1422:	4b19      	ldr	r3, [pc, #100]	; (1488 <_usb_on_bus_reset+0x8c>)
    1424:	4798      	blx	r3
    1426:	4e19      	ldr	r6, [pc, #100]	; (148c <_usb_on_bus_reset+0x90>)
    1428:	0021      	movs	r1, r4
    142a:	0028      	movs	r0, r5
    142c:	4b18      	ldr	r3, [pc, #96]	; (1490 <_usb_on_bus_reset+0x94>)
    142e:	2202      	movs	r2, #2
    1430:	47b0      	blx	r6
    1432:	0022      	movs	r2, r4
    1434:	0021      	movs	r1, r4
    1436:	0028      	movs	r0, r5
    1438:	4b16      	ldr	r3, [pc, #88]	; (1494 <_usb_on_bus_reset+0x98>)
    143a:	47b0      	blx	r6
    143c:	4b16      	ldr	r3, [pc, #88]	; (1498 <_usb_on_bus_reset+0x9c>)
    143e:	0021      	movs	r1, r4
    1440:	0028      	movs	r0, r5
    1442:	2201      	movs	r2, #1
    1444:	47b0      	blx	r6
    1446:	4e15      	ldr	r6, [pc, #84]	; (149c <_usb_on_bus_reset+0xa0>)
    1448:	0021      	movs	r1, r4
    144a:	0028      	movs	r0, r5
    144c:	2202      	movs	r2, #2
    144e:	47b0      	blx	r6
    1450:	0022      	movs	r2, r4
    1452:	0021      	movs	r1, r4
    1454:	0028      	movs	r0, r5
    1456:	47b0      	blx	r6
    1458:	0021      	movs	r1, r4
    145a:	0028      	movs	r0, r5
    145c:	2201      	movs	r2, #1
    145e:	47b0      	blx	r6
    1460:	6829      	ldr	r1, [r5, #0]
    1462:	4a0f      	ldr	r2, [pc, #60]	; (14a0 <_usb_on_bus_reset+0xa4>)
    1464:	890b      	ldrh	r3, [r1, #8]
    1466:	401a      	ands	r2, r3
    1468:	2380      	movs	r3, #128	; 0x80
    146a:	00db      	lsls	r3, r3, #3
    146c:	4313      	orrs	r3, r2
    146e:	810b      	strh	r3, [r1, #8]
    1470:	4b0c      	ldr	r3, [pc, #48]	; (14a4 <_usb_on_bus_reset+0xa8>)
    1472:	701c      	strb	r4, [r3, #0]
    1474:	bd73      	pop	{r0, r1, r4, r5, r6, pc}
    1476:	46c0      	nop			; (mov r8, r8)
    1478:	00000635 	.word	0x00000635
    147c:	00001fe1 	.word	0x00001fe1
    1480:	00001ff1 	.word	0x00001ff1
    1484:	200003a0 	.word	0x200003a0
    1488:	000022d9 	.word	0x000022d9
    148c:	00001e79 	.word	0x00001e79
    1490:	00001615 	.word	0x00001615
    1494:	000019c9 	.word	0x000019c9
    1498:	000014e5 	.word	0x000014e5
    149c:	00001ec9 	.word	0x00001ec9
    14a0:	fffff3ff 	.word	0xfffff3ff
    14a4:	20000152 	.word	0x20000152

000014a8 <udd_ctrl_send_zlp_in>:
    14a8:	2203      	movs	r2, #3
    14aa:	b510      	push	{r4, lr}
    14ac:	4b07      	ldr	r3, [pc, #28]	; (14cc <udd_ctrl_send_zlp_in+0x24>)
    14ae:	4c08      	ldr	r4, [pc, #32]	; (14d0 <udd_ctrl_send_zlp_in+0x28>)
    14b0:	701a      	strb	r2, [r3, #0]
    14b2:	4908      	ldr	r1, [pc, #32]	; (14d4 <udd_ctrl_send_zlp_in+0x2c>)
    14b4:	0020      	movs	r0, r4
    14b6:	4b08      	ldr	r3, [pc, #32]	; (14d8 <udd_ctrl_send_zlp_in+0x30>)
    14b8:	4798      	blx	r3
    14ba:	2300      	movs	r3, #0
    14bc:	4a07      	ldr	r2, [pc, #28]	; (14dc <udd_ctrl_send_zlp_in+0x34>)
    14be:	0019      	movs	r1, r3
    14c0:	6892      	ldr	r2, [r2, #8]
    14c2:	0020      	movs	r0, r4
    14c4:	4c06      	ldr	r4, [pc, #24]	; (14e0 <udd_ctrl_send_zlp_in+0x38>)
    14c6:	47a0      	blx	r4
    14c8:	bd10      	pop	{r4, pc}
    14ca:	46c0      	nop			; (mov r8, r8)
    14cc:	20000152 	.word	0x20000152
    14d0:	20000220 	.word	0x20000220
    14d4:	200003a0 	.word	0x200003a0
    14d8:	000022d9 	.word	0x000022d9
    14dc:	20000388 	.word	0x20000388
    14e0:	00002245 	.word	0x00002245

000014e4 <_usb_ep0_on_tansfer_fail>:
    14e4:	b510      	push	{r4, lr}
    14e6:	7989      	ldrb	r1, [r1, #6]
    14e8:	4b0c      	ldr	r3, [pc, #48]	; (151c <_usb_ep0_on_tansfer_fail+0x38>)
    14ea:	b24a      	sxtb	r2, r1
    14ec:	2a00      	cmp	r2, #0
    14ee:	da0b      	bge.n	1508 <_usb_ep0_on_tansfer_fail+0x24>
    14f0:	781b      	ldrb	r3, [r3, #0]
    14f2:	2b01      	cmp	r3, #1
    14f4:	d102      	bne.n	14fc <_usb_ep0_on_tansfer_fail+0x18>
    14f6:	4b0a      	ldr	r3, [pc, #40]	; (1520 <_usb_ep0_on_tansfer_fail+0x3c>)
    14f8:	4798      	blx	r3
    14fa:	bd10      	pop	{r4, pc}
    14fc:	2b04      	cmp	r3, #4
    14fe:	d1fc      	bne.n	14fa <_usb_ep0_on_tansfer_fail+0x16>
    1500:	4808      	ldr	r0, [pc, #32]	; (1524 <_usb_ep0_on_tansfer_fail+0x40>)
    1502:	4b09      	ldr	r3, [pc, #36]	; (1528 <_usb_ep0_on_tansfer_fail+0x44>)
    1504:	4798      	blx	r3
    1506:	e7f8      	b.n	14fa <_usb_ep0_on_tansfer_fail+0x16>
    1508:	781a      	ldrb	r2, [r3, #0]
    150a:	2a02      	cmp	r2, #2
    150c:	d102      	bne.n	1514 <_usb_ep0_on_tansfer_fail+0x30>
    150e:	3202      	adds	r2, #2
    1510:	701a      	strb	r2, [r3, #0]
    1512:	e7f2      	b.n	14fa <_usb_ep0_on_tansfer_fail+0x16>
    1514:	2a03      	cmp	r2, #3
    1516:	d1f0      	bne.n	14fa <_usb_ep0_on_tansfer_fail+0x16>
    1518:	e7f2      	b.n	1500 <_usb_ep0_on_tansfer_fail+0x1c>
    151a:	46c0      	nop			; (mov r8, r8)
    151c:	20000152 	.word	0x20000152
    1520:	000014a9 	.word	0x000014a9
    1524:	20000220 	.word	0x20000220
    1528:	000021cb 	.word	0x000021cb

0000152c <udd_ctrl_in_sent>:
    152c:	b570      	push	{r4, r5, r6, lr}
    152e:	4d1d      	ldr	r5, [pc, #116]	; (15a4 <udd_ctrl_in_sent+0x78>)
    1530:	4e1d      	ldr	r6, [pc, #116]	; (15a8 <udd_ctrl_in_sent+0x7c>)
    1532:	882b      	ldrh	r3, [r5, #0]
    1534:	89b4      	ldrh	r4, [r6, #12]
    1536:	1ae4      	subs	r4, r4, r3
    1538:	b2a4      	uxth	r4, r4
    153a:	2c00      	cmp	r4, #0
    153c:	d11b      	bne.n	1576 <udd_ctrl_in_sent+0x4a>
    153e:	4a1b      	ldr	r2, [pc, #108]	; (15ac <udd_ctrl_in_sent+0x80>)
    1540:	8811      	ldrh	r1, [r2, #0]
    1542:	185b      	adds	r3, r3, r1
    1544:	b29b      	uxth	r3, r3
    1546:	8013      	strh	r3, [r2, #0]
    1548:	88f2      	ldrh	r2, [r6, #6]
    154a:	429a      	cmp	r2, r3
    154c:	d003      	beq.n	1556 <udd_ctrl_in_sent+0x2a>
    154e:	4b18      	ldr	r3, [pc, #96]	; (15b0 <udd_ctrl_in_sent+0x84>)
    1550:	781b      	ldrb	r3, [r3, #0]
    1552:	2b00      	cmp	r3, #0
    1554:	d007      	beq.n	1566 <udd_ctrl_in_sent+0x3a>
    1556:	2204      	movs	r2, #4
    1558:	4b16      	ldr	r3, [pc, #88]	; (15b4 <udd_ctrl_in_sent+0x88>)
    155a:	4917      	ldr	r1, [pc, #92]	; (15b8 <udd_ctrl_in_sent+0x8c>)
    155c:	701a      	strb	r2, [r3, #0]
    155e:	4817      	ldr	r0, [pc, #92]	; (15bc <udd_ctrl_in_sent+0x90>)
    1560:	4b17      	ldr	r3, [pc, #92]	; (15c0 <udd_ctrl_in_sent+0x94>)
    1562:	4798      	blx	r3
    1564:	bd70      	pop	{r4, r5, r6, pc}
    1566:	6973      	ldr	r3, [r6, #20]
    1568:	2b00      	cmp	r3, #0
    156a:	d016      	beq.n	159a <udd_ctrl_in_sent+0x6e>
    156c:	4798      	blx	r3
    156e:	2800      	cmp	r0, #0
    1570:	d013      	beq.n	159a <udd_ctrl_in_sent+0x6e>
    1572:	802c      	strh	r4, [r5, #0]
    1574:	89b4      	ldrh	r4, [r6, #12]
    1576:	2c07      	cmp	r4, #7
    1578:	d90f      	bls.n	159a <udd_ctrl_in_sent+0x6e>
    157a:	2200      	movs	r2, #0
    157c:	2408      	movs	r4, #8
    157e:	4b0c      	ldr	r3, [pc, #48]	; (15b0 <udd_ctrl_in_sent+0x84>)
    1580:	701a      	strb	r2, [r3, #0]
    1582:	882b      	ldrh	r3, [r5, #0]
    1584:	68b2      	ldr	r2, [r6, #8]
    1586:	2100      	movs	r1, #0
    1588:	18d2      	adds	r2, r2, r3
    158a:	480c      	ldr	r0, [pc, #48]	; (15bc <udd_ctrl_in_sent+0x90>)
    158c:	0023      	movs	r3, r4
    158e:	4e0d      	ldr	r6, [pc, #52]	; (15c4 <udd_ctrl_in_sent+0x98>)
    1590:	47b0      	blx	r6
    1592:	882b      	ldrh	r3, [r5, #0]
    1594:	18e4      	adds	r4, r4, r3
    1596:	802c      	strh	r4, [r5, #0]
    1598:	e7e4      	b.n	1564 <udd_ctrl_in_sent+0x38>
    159a:	2201      	movs	r2, #1
    159c:	4b04      	ldr	r3, [pc, #16]	; (15b0 <udd_ctrl_in_sent+0x84>)
    159e:	701a      	strb	r2, [r3, #0]
    15a0:	e7ef      	b.n	1582 <udd_ctrl_in_sent+0x56>
    15a2:	46c0      	nop			; (mov r8, r8)
    15a4:	2000014e 	.word	0x2000014e
    15a8:	20000388 	.word	0x20000388
    15ac:	20000150 	.word	0x20000150
    15b0:	2000014c 	.word	0x2000014c
    15b4:	20000152 	.word	0x20000152
    15b8:	200003a0 	.word	0x200003a0
    15bc:	20000220 	.word	0x20000220
    15c0:	000022d9 	.word	0x000022d9
    15c4:	00002245 	.word	0x00002245

000015c8 <_usb_on_sof_notify>:
    15c8:	b510      	push	{r4, lr}
    15ca:	4b02      	ldr	r3, [pc, #8]	; (15d4 <_usb_on_sof_notify+0xc>)
    15cc:	4798      	blx	r3
    15ce:	4b02      	ldr	r3, [pc, #8]	; (15d8 <_usb_on_sof_notify+0x10>)
    15d0:	4798      	blx	r3
    15d2:	bd10      	pop	{r4, pc}
    15d4:	00000685 	.word	0x00000685
    15d8:	00002c6d 	.word	0x00002c6d

000015dc <cpu_irq_restore.part.0>:
    15dc:	2201      	movs	r2, #1
    15de:	4b03      	ldr	r3, [pc, #12]	; (15ec <cpu_irq_restore.part.0+0x10>)
    15e0:	701a      	strb	r2, [r3, #0]
    15e2:	f3bf 8f5f 	dmb	sy
    15e6:	b662      	cpsie	i
    15e8:	4770      	bx	lr
    15ea:	46c0      	nop			; (mov r8, r8)
    15ec:	200000d7 	.word	0x200000d7

000015f0 <udd_wait_clock_ready>:
    15f0:	4b07      	ldr	r3, [pc, #28]	; (1610 <udd_wait_clock_ready+0x20>)
    15f2:	8c9a      	ldrh	r2, [r3, #36]	; 0x24
    15f4:	0692      	lsls	r2, r2, #26
    15f6:	d405      	bmi.n	1604 <udd_wait_clock_ready+0x14>
    15f8:	21d0      	movs	r1, #208	; 0xd0
    15fa:	68da      	ldr	r2, [r3, #12]
    15fc:	400a      	ands	r2, r1
    15fe:	2ad0      	cmp	r2, #208	; 0xd0
    1600:	d1fb      	bne.n	15fa <udd_wait_clock_ready+0xa>
    1602:	4770      	bx	lr
    1604:	2210      	movs	r2, #16
    1606:	68d9      	ldr	r1, [r3, #12]
    1608:	4211      	tst	r1, r2
    160a:	d0fc      	beq.n	1606 <udd_wait_clock_ready+0x16>
    160c:	e7f9      	b.n	1602 <udd_wait_clock_ready+0x12>
    160e:	46c0      	nop			; (mov r8, r8)
    1610:	40000800 	.word	0x40000800

00001614 <_usb_ep0_on_setup>:
    1614:	b5f8      	push	{r3, r4, r5, r6, r7, lr}
    1616:	4e27      	ldr	r6, [pc, #156]	; (16b4 <_usb_ep0_on_setup+0xa0>)
    1618:	000c      	movs	r4, r1
    161a:	7833      	ldrb	r3, [r6, #0]
    161c:	2b00      	cmp	r3, #0
    161e:	d006      	beq.n	162e <_usb_ep0_on_setup+0x1a>
    1620:	4b25      	ldr	r3, [pc, #148]	; (16b8 <_usb_ep0_on_setup+0xa4>)
    1622:	691b      	ldr	r3, [r3, #16]
    1624:	2b00      	cmp	r3, #0
    1626:	d000      	beq.n	162a <_usb_ep0_on_setup+0x16>
    1628:	4798      	blx	r3
    162a:	2300      	movs	r3, #0
    162c:	7033      	strb	r3, [r6, #0]
    162e:	8827      	ldrh	r7, [r4, #0]
    1630:	2f08      	cmp	r7, #8
    1632:	d002      	beq.n	163a <_usb_ep0_on_setup+0x26>
    1634:	4b21      	ldr	r3, [pc, #132]	; (16bc <_usb_ep0_on_setup+0xa8>)
    1636:	4798      	blx	r3
    1638:	bdf8      	pop	{r3, r4, r5, r6, r7, pc}
    163a:	4c21      	ldr	r4, [pc, #132]	; (16c0 <_usb_ep0_on_setup+0xac>)
    163c:	4d1e      	ldr	r5, [pc, #120]	; (16b8 <_usb_ep0_on_setup+0xa4>)
    163e:	7823      	ldrb	r3, [r4, #0]
    1640:	702b      	strb	r3, [r5, #0]
    1642:	7863      	ldrb	r3, [r4, #1]
    1644:	706b      	strb	r3, [r5, #1]
    1646:	78e2      	ldrb	r2, [r4, #3]
    1648:	78a3      	ldrb	r3, [r4, #2]
    164a:	0212      	lsls	r2, r2, #8
    164c:	189b      	adds	r3, r3, r2
    164e:	806b      	strh	r3, [r5, #2]
    1650:	7962      	ldrb	r2, [r4, #5]
    1652:	7923      	ldrb	r3, [r4, #4]
    1654:	0212      	lsls	r2, r2, #8
    1656:	189b      	adds	r3, r3, r2
    1658:	80ab      	strh	r3, [r5, #4]
    165a:	79e2      	ldrb	r2, [r4, #7]
    165c:	79a3      	ldrb	r3, [r4, #6]
    165e:	0212      	lsls	r2, r2, #8
    1660:	189b      	adds	r3, r3, r2
    1662:	80eb      	strh	r3, [r5, #6]
    1664:	4b17      	ldr	r3, [pc, #92]	; (16c4 <_usb_ep0_on_setup+0xb0>)
    1666:	4798      	blx	r3
    1668:	2800      	cmp	r0, #0
    166a:	d0e3      	beq.n	1634 <_usb_ep0_on_setup+0x20>
    166c:	782b      	ldrb	r3, [r5, #0]
    166e:	2b7f      	cmp	r3, #127	; 0x7f
    1670:	d90d      	bls.n	168e <_usb_ep0_on_setup+0x7a>
    1672:	2100      	movs	r1, #0
    1674:	4b14      	ldr	r3, [pc, #80]	; (16c8 <_usb_ep0_on_setup+0xb4>)
    1676:	0022      	movs	r2, r4
    1678:	8019      	strh	r1, [r3, #0]
    167a:	4b14      	ldr	r3, [pc, #80]	; (16cc <_usb_ep0_on_setup+0xb8>)
    167c:	4814      	ldr	r0, [pc, #80]	; (16d0 <_usb_ep0_on_setup+0xbc>)
    167e:	8019      	strh	r1, [r3, #0]
    1680:	2302      	movs	r3, #2
    1682:	4c14      	ldr	r4, [pc, #80]	; (16d4 <_usb_ep0_on_setup+0xc0>)
    1684:	7033      	strb	r3, [r6, #0]
    1686:	003b      	movs	r3, r7
    1688:	47a0      	blx	r4
    168a:	4b13      	ldr	r3, [pc, #76]	; (16d8 <_usb_ep0_on_setup+0xc4>)
    168c:	e7d3      	b.n	1636 <_usb_ep0_on_setup+0x22>
    168e:	88eb      	ldrh	r3, [r5, #6]
    1690:	2b00      	cmp	r3, #0
    1692:	d101      	bne.n	1698 <_usb_ep0_on_setup+0x84>
    1694:	4b11      	ldr	r3, [pc, #68]	; (16dc <_usb_ep0_on_setup+0xc8>)
    1696:	e7ce      	b.n	1636 <_usb_ep0_on_setup+0x22>
    1698:	2100      	movs	r1, #0
    169a:	4b0b      	ldr	r3, [pc, #44]	; (16c8 <_usb_ep0_on_setup+0xb4>)
    169c:	0022      	movs	r2, r4
    169e:	8019      	strh	r1, [r3, #0]
    16a0:	4b0a      	ldr	r3, [pc, #40]	; (16cc <_usb_ep0_on_setup+0xb8>)
    16a2:	4c0c      	ldr	r4, [pc, #48]	; (16d4 <_usb_ep0_on_setup+0xc0>)
    16a4:	8019      	strh	r1, [r3, #0]
    16a6:	2301      	movs	r3, #1
    16a8:	4809      	ldr	r0, [pc, #36]	; (16d0 <_usb_ep0_on_setup+0xbc>)
    16aa:	7033      	strb	r3, [r6, #0]
    16ac:	003b      	movs	r3, r7
    16ae:	47a0      	blx	r4
    16b0:	e7c2      	b.n	1638 <_usb_ep0_on_setup+0x24>
    16b2:	46c0      	nop			; (mov r8, r8)
    16b4:	20000152 	.word	0x20000152
    16b8:	20000388 	.word	0x20000388
    16bc:	000013d1 	.word	0x000013d1
    16c0:	200003a0 	.word	0x200003a0
    16c4:	000006bd 	.word	0x000006bd
    16c8:	20000150 	.word	0x20000150
    16cc:	2000014e 	.word	0x2000014e
    16d0:	20000220 	.word	0x20000220
    16d4:	00002291 	.word	0x00002291
    16d8:	0000152d 	.word	0x0000152d
    16dc:	000014a9 	.word	0x000014a9

000016e0 <udd_sleep_mode>:
    16e0:	2300      	movs	r3, #0
    16e2:	b5f0      	push	{r4, r5, r6, r7, lr}
    16e4:	b085      	sub	sp, #20
    16e6:	ac03      	add	r4, sp, #12
    16e8:	7023      	strb	r3, [r4, #0]
    16ea:	3303      	adds	r3, #3
    16ec:	7063      	strb	r3, [r4, #1]
    16ee:	3b01      	subs	r3, #1
    16f0:	70a3      	strb	r3, [r4, #2]
    16f2:	3b01      	subs	r3, #1
    16f4:	70e3      	strb	r3, [r4, #3]
    16f6:	4b16      	ldr	r3, [pc, #88]	; (1750 <udd_sleep_mode+0x70>)
    16f8:	0005      	movs	r5, r0
    16fa:	781b      	ldrb	r3, [r3, #0]
    16fc:	9301      	str	r3, [sp, #4]
    16fe:	4283      	cmp	r3, r0
    1700:	d024      	beq.n	174c <udd_sleep_mode+0x6c>
    1702:	2800      	cmp	r0, #0
    1704:	d00e      	beq.n	1724 <udd_sleep_mode+0x44>
    1706:	5c26      	ldrb	r6, [r4, r0]
    1708:	4f12      	ldr	r7, [pc, #72]	; (1754 <udd_sleep_mode+0x74>)
    170a:	5dbb      	ldrb	r3, [r7, r6]
    170c:	2bff      	cmp	r3, #255	; 0xff
    170e:	d100      	bne.n	1712 <udd_sleep_mode+0x32>
    1710:	e7fe      	b.n	1710 <udd_sleep_mode+0x30>
    1712:	4b11      	ldr	r3, [pc, #68]	; (1758 <udd_sleep_mode+0x78>)
    1714:	4798      	blx	r3
    1716:	5dbb      	ldrb	r3, [r7, r6]
    1718:	3301      	adds	r3, #1
    171a:	55bb      	strb	r3, [r7, r6]
    171c:	2800      	cmp	r0, #0
    171e:	d001      	beq.n	1724 <udd_sleep_mode+0x44>
    1720:	4b0e      	ldr	r3, [pc, #56]	; (175c <udd_sleep_mode+0x7c>)
    1722:	4798      	blx	r3
    1724:	9b01      	ldr	r3, [sp, #4]
    1726:	2b00      	cmp	r3, #0
    1728:	d00e      	beq.n	1748 <udd_sleep_mode+0x68>
    172a:	5ce4      	ldrb	r4, [r4, r3]
    172c:	4e09      	ldr	r6, [pc, #36]	; (1754 <udd_sleep_mode+0x74>)
    172e:	5d33      	ldrb	r3, [r6, r4]
    1730:	2b00      	cmp	r3, #0
    1732:	d100      	bne.n	1736 <udd_sleep_mode+0x56>
    1734:	e7fe      	b.n	1734 <udd_sleep_mode+0x54>
    1736:	4b08      	ldr	r3, [pc, #32]	; (1758 <udd_sleep_mode+0x78>)
    1738:	4798      	blx	r3
    173a:	5d33      	ldrb	r3, [r6, r4]
    173c:	3b01      	subs	r3, #1
    173e:	5533      	strb	r3, [r6, r4]
    1740:	2800      	cmp	r0, #0
    1742:	d001      	beq.n	1748 <udd_sleep_mode+0x68>
    1744:	4b05      	ldr	r3, [pc, #20]	; (175c <udd_sleep_mode+0x7c>)
    1746:	4798      	blx	r3
    1748:	4b01      	ldr	r3, [pc, #4]	; (1750 <udd_sleep_mode+0x70>)
    174a:	701d      	strb	r5, [r3, #0]
    174c:	b005      	add	sp, #20
    174e:	bdf0      	pop	{r4, r5, r6, r7, pc}
    1750:	2000017c 	.word	0x2000017c
    1754:	2000019a 	.word	0x2000019a
    1758:	00001209 	.word	0x00001209
    175c:	000015dd 	.word	0x000015dd

00001760 <_usb_device_lpm_suspend>:
    1760:	b570      	push	{r4, r5, r6, lr}
    1762:	4c08      	ldr	r4, [pc, #32]	; (1784 <_usb_device_lpm_suspend+0x24>)
    1764:	4d08      	ldr	r5, [pc, #32]	; (1788 <_usb_device_lpm_suspend+0x28>)
    1766:	2106      	movs	r1, #6
    1768:	0020      	movs	r0, r4
    176a:	47a8      	blx	r5
    176c:	2104      	movs	r1, #4
    176e:	0020      	movs	r0, r4
    1770:	47a8      	blx	r5
    1772:	2102      	movs	r1, #2
    1774:	0020      	movs	r0, r4
    1776:	4b05      	ldr	r3, [pc, #20]	; (178c <_usb_device_lpm_suspend+0x2c>)
    1778:	4798      	blx	r3
    177a:	2002      	movs	r0, #2
    177c:	4b04      	ldr	r3, [pc, #16]	; (1790 <_usb_device_lpm_suspend+0x30>)
    177e:	4798      	blx	r3
    1780:	bd70      	pop	{r4, r5, r6, pc}
    1782:	46c0      	nop			; (mov r8, r8)
    1784:	20000220 	.word	0x20000220
    1788:	00001e5d 	.word	0x00001e5d
    178c:	00001e3d 	.word	0x00001e3d
    1790:	000016e1 	.word	0x000016e1

00001794 <_usb_on_wakeup>:
    1794:	b570      	push	{r4, r5, r6, lr}
    1796:	4b0c      	ldr	r3, [pc, #48]	; (17c8 <_usb_on_wakeup+0x34>)
    1798:	4798      	blx	r3
    179a:	4c0c      	ldr	r4, [pc, #48]	; (17cc <_usb_on_wakeup+0x38>)
    179c:	4b0c      	ldr	r3, [pc, #48]	; (17d0 <_usb_on_wakeup+0x3c>)
    179e:	2102      	movs	r1, #2
    17a0:	0020      	movs	r0, r4
    17a2:	4798      	blx	r3
    17a4:	4d0b      	ldr	r5, [pc, #44]	; (17d4 <_usb_on_wakeup+0x40>)
    17a6:	2104      	movs	r1, #4
    17a8:	0020      	movs	r0, r4
    17aa:	47a8      	blx	r5
    17ac:	4a0a      	ldr	r2, [pc, #40]	; (17d8 <_usb_on_wakeup+0x44>)
    17ae:	4b0b      	ldr	r3, [pc, #44]	; (17dc <_usb_on_wakeup+0x48>)
    17b0:	2106      	movs	r1, #6
    17b2:	0020      	movs	r0, r4
    17b4:	4798      	blx	r3
    17b6:	2106      	movs	r1, #6
    17b8:	0020      	movs	r0, r4
    17ba:	47a8      	blx	r5
    17bc:	2003      	movs	r0, #3
    17be:	4b08      	ldr	r3, [pc, #32]	; (17e0 <_usb_on_wakeup+0x4c>)
    17c0:	4798      	blx	r3
    17c2:	4b08      	ldr	r3, [pc, #32]	; (17e4 <_usb_on_wakeup+0x50>)
    17c4:	4798      	blx	r3
    17c6:	bd70      	pop	{r4, r5, r6, pc}
    17c8:	000015f1 	.word	0x000015f1
    17cc:	20000220 	.word	0x20000220
    17d0:	00001e5d 	.word	0x00001e5d
    17d4:	00001e3d 	.word	0x00001e3d
    17d8:	00001761 	.word	0x00001761
    17dc:	00001e19 	.word	0x00001e19
    17e0:	000016e1 	.word	0x000016e1
    17e4:	00002c61 	.word	0x00002c61

000017e8 <_usb_on_suspend>:
    17e8:	b510      	push	{r4, lr}
    17ea:	4c07      	ldr	r4, [pc, #28]	; (1808 <_usb_on_suspend+0x20>)
    17ec:	2104      	movs	r1, #4
    17ee:	0020      	movs	r0, r4
    17f0:	4b06      	ldr	r3, [pc, #24]	; (180c <_usb_on_suspend+0x24>)
    17f2:	4798      	blx	r3
    17f4:	2102      	movs	r1, #2
    17f6:	0020      	movs	r0, r4
    17f8:	4b05      	ldr	r3, [pc, #20]	; (1810 <_usb_on_suspend+0x28>)
    17fa:	4798      	blx	r3
    17fc:	2001      	movs	r0, #1
    17fe:	4b05      	ldr	r3, [pc, #20]	; (1814 <_usb_on_suspend+0x2c>)
    1800:	4798      	blx	r3
    1802:	4b05      	ldr	r3, [pc, #20]	; (1818 <_usb_on_suspend+0x30>)
    1804:	4798      	blx	r3
    1806:	bd10      	pop	{r4, pc}
    1808:	20000220 	.word	0x20000220
    180c:	00001e5d 	.word	0x00001e5d
    1810:	00001e3d 	.word	0x00001e3d
    1814:	000016e1 	.word	0x000016e1
    1818:	00002c55 	.word	0x00002c55

0000181c <udd_ep_abort>:
    181c:	b570      	push	{r4, r5, r6, lr}
    181e:	0004      	movs	r4, r0
    1820:	0001      	movs	r1, r0
    1822:	4b0a      	ldr	r3, [pc, #40]	; (184c <udd_ep_abort+0x30>)
    1824:	480a      	ldr	r0, [pc, #40]	; (1850 <udd_ep_abort+0x34>)
    1826:	4798      	blx	r3
    1828:	4b0a      	ldr	r3, [pc, #40]	; (1854 <udd_ep_abort+0x38>)
    182a:	0020      	movs	r0, r4
    182c:	4798      	blx	r3
    182e:	0003      	movs	r3, r0
    1830:	7c82      	ldrb	r2, [r0, #18]
    1832:	2001      	movs	r0, #1
    1834:	4202      	tst	r2, r0
    1836:	d007      	beq.n	1848 <udd_ep_abort+0x2c>
    1838:	681d      	ldr	r5, [r3, #0]
    183a:	4382      	bics	r2, r0
    183c:	749a      	strb	r2, [r3, #18]
    183e:	2d00      	cmp	r5, #0
    1840:	d002      	beq.n	1848 <udd_ep_abort+0x2c>
    1842:	0022      	movs	r2, r4
    1844:	68d9      	ldr	r1, [r3, #12]
    1846:	47a8      	blx	r5
    1848:	bd70      	pop	{r4, r5, r6, pc}
    184a:	46c0      	nop			; (mov r8, r8)
    184c:	00002181 	.word	0x00002181
    1850:	20000220 	.word	0x20000220
    1854:	0000122d 	.word	0x0000122d

00001858 <udd_get_frame_number>:
    1858:	4b02      	ldr	r3, [pc, #8]	; (1864 <udd_get_frame_number+0xc>)
    185a:	681b      	ldr	r3, [r3, #0]
    185c:	8a18      	ldrh	r0, [r3, #16]
    185e:	0480      	lsls	r0, r0, #18
    1860:	0d40      	lsrs	r0, r0, #21
    1862:	4770      	bx	lr
    1864:	20000220 	.word	0x20000220

00001868 <udd_ep_free>:
    1868:	b5f7      	push	{r0, r1, r2, r4, r5, r6, r7, lr}
    186a:	0004      	movs	r4, r0
    186c:	2700      	movs	r7, #0
    186e:	ad01      	add	r5, sp, #4
    1870:	0028      	movs	r0, r5
    1872:	4b0c      	ldr	r3, [pc, #48]	; (18a4 <udd_ep_free+0x3c>)
    1874:	4798      	blx	r3
    1876:	0020      	movs	r0, r4
    1878:	4b0b      	ldr	r3, [pc, #44]	; (18a8 <udd_ep_free+0x40>)
    187a:	4798      	blx	r3
    187c:	4e0b      	ldr	r6, [pc, #44]	; (18ac <udd_ep_free+0x44>)
    187e:	0029      	movs	r1, r5
    1880:	0030      	movs	r0, r6
    1882:	4b0b      	ldr	r3, [pc, #44]	; (18b0 <udd_ep_free+0x48>)
    1884:	70ef      	strb	r7, [r5, #3]
    1886:	702c      	strb	r4, [r5, #0]
    1888:	4798      	blx	r3
    188a:	210f      	movs	r1, #15
    188c:	003a      	movs	r2, r7
    188e:	4021      	ands	r1, r4
    1890:	0030      	movs	r0, r6
    1892:	4b08      	ldr	r3, [pc, #32]	; (18b4 <udd_ep_free+0x4c>)
    1894:	4798      	blx	r3
    1896:	003a      	movs	r2, r7
    1898:	0030      	movs	r0, r6
    189a:	0021      	movs	r1, r4
    189c:	4b06      	ldr	r3, [pc, #24]	; (18b8 <udd_ep_free+0x50>)
    189e:	4798      	blx	r3
    18a0:	bdf7      	pop	{r0, r1, r2, r4, r5, r6, r7, pc}
    18a2:	46c0      	nop			; (mov r8, r8)
    18a4:	00001fe1 	.word	0x00001fe1
    18a8:	0000181d 	.word	0x0000181d
    18ac:	20000220 	.word	0x20000220
    18b0:	00001ff1 	.word	0x00001ff1
    18b4:	00001ea1 	.word	0x00001ea1
    18b8:	00001f55 	.word	0x00001f55

000018bc <udd_ep_alloc>:
    18bc:	b5f7      	push	{r0, r1, r2, r4, r5, r6, r7, lr}
    18be:	0006      	movs	r6, r0
    18c0:	ac01      	add	r4, sp, #4
    18c2:	4b29      	ldr	r3, [pc, #164]	; (1968 <udd_ep_alloc+0xac>)
    18c4:	0020      	movs	r0, r4
    18c6:	000f      	movs	r7, r1
    18c8:	0015      	movs	r5, r2
    18ca:	4798      	blx	r3
    18cc:	7026      	strb	r6, [r4, #0]
    18ce:	2300      	movs	r3, #0
    18d0:	2d08      	cmp	r5, #8
    18d2:	d910      	bls.n	18f6 <udd_ep_alloc+0x3a>
    18d4:	2301      	movs	r3, #1
    18d6:	2d10      	cmp	r5, #16
    18d8:	d90d      	bls.n	18f6 <udd_ep_alloc+0x3a>
    18da:	2302      	movs	r3, #2
    18dc:	2d20      	cmp	r5, #32
    18de:	d90a      	bls.n	18f6 <udd_ep_alloc+0x3a>
    18e0:	2303      	movs	r3, #3
    18e2:	2d40      	cmp	r5, #64	; 0x40
    18e4:	d907      	bls.n	18f6 <udd_ep_alloc+0x3a>
    18e6:	2304      	movs	r3, #4
    18e8:	2d80      	cmp	r5, #128	; 0x80
    18ea:	d904      	bls.n	18f6 <udd_ep_alloc+0x3a>
    18ec:	2380      	movs	r3, #128	; 0x80
    18ee:	005b      	lsls	r3, r3, #1
    18f0:	429d      	cmp	r5, r3
    18f2:	d824      	bhi.n	193e <udd_ep_alloc+0x82>
    18f4:	3bfb      	subs	r3, #251	; 0xfb
    18f6:	7063      	strb	r3, [r4, #1]
    18f8:	0030      	movs	r0, r6
    18fa:	4b1c      	ldr	r3, [pc, #112]	; (196c <udd_ep_alloc+0xb0>)
    18fc:	4798      	blx	r3
    18fe:	2303      	movs	r3, #3
    1900:	8205      	strh	r5, [r0, #16]
    1902:	401f      	ands	r7, r3
    1904:	2f01      	cmp	r7, #1
    1906:	d128      	bne.n	195a <udd_ep_alloc+0x9e>
    1908:	3b01      	subs	r3, #1
    190a:	4d19      	ldr	r5, [pc, #100]	; (1970 <udd_ep_alloc+0xb4>)
    190c:	70e3      	strb	r3, [r4, #3]
    190e:	0021      	movs	r1, r4
    1910:	0028      	movs	r0, r5
    1912:	4b18      	ldr	r3, [pc, #96]	; (1974 <udd_ep_alloc+0xb8>)
    1914:	4798      	blx	r3
    1916:	1e04      	subs	r4, r0, #0
    1918:	d11b      	bne.n	1952 <udd_ep_alloc+0x96>
    191a:	210f      	movs	r1, #15
    191c:	4b16      	ldr	r3, [pc, #88]	; (1978 <udd_ep_alloc+0xbc>)
    191e:	0002      	movs	r2, r0
    1920:	4031      	ands	r1, r6
    1922:	0028      	movs	r0, r5
    1924:	4f15      	ldr	r7, [pc, #84]	; (197c <udd_ep_alloc+0xc0>)
    1926:	47b8      	blx	r7
    1928:	0022      	movs	r2, r4
    192a:	0031      	movs	r1, r6
    192c:	4c14      	ldr	r4, [pc, #80]	; (1980 <udd_ep_alloc+0xc4>)
    192e:	0028      	movs	r0, r5
    1930:	47a0      	blx	r4
    1932:	2201      	movs	r2, #1
    1934:	0031      	movs	r1, r6
    1936:	0028      	movs	r0, r5
    1938:	47a0      	blx	r4
    193a:	2001      	movs	r0, #1
    193c:	e00a      	b.n	1954 <udd_ep_alloc+0x98>
    193e:	2380      	movs	r3, #128	; 0x80
    1940:	009b      	lsls	r3, r3, #2
    1942:	429d      	cmp	r5, r3
    1944:	d802      	bhi.n	194c <udd_ep_alloc+0x90>
    1946:	3bfb      	subs	r3, #251	; 0xfb
    1948:	3bff      	subs	r3, #255	; 0xff
    194a:	e7d4      	b.n	18f6 <udd_ep_alloc+0x3a>
    194c:	4b0d      	ldr	r3, [pc, #52]	; (1984 <udd_ep_alloc+0xc8>)
    194e:	429d      	cmp	r5, r3
    1950:	d901      	bls.n	1956 <udd_ep_alloc+0x9a>
    1952:	2000      	movs	r0, #0
    1954:	bdfe      	pop	{r1, r2, r3, r4, r5, r6, r7, pc}
    1956:	2307      	movs	r3, #7
    1958:	e7cd      	b.n	18f6 <udd_ep_alloc+0x3a>
    195a:	2f02      	cmp	r7, #2
    195c:	d0d5      	beq.n	190a <udd_ep_alloc+0x4e>
    195e:	2f03      	cmp	r7, #3
    1960:	d1f7      	bne.n	1952 <udd_ep_alloc+0x96>
    1962:	2304      	movs	r3, #4
    1964:	e7d1      	b.n	190a <udd_ep_alloc+0x4e>
    1966:	46c0      	nop			; (mov r8, r8)
    1968:	00001fe1 	.word	0x00001fe1
    196c:	0000122d 	.word	0x0000122d
    1970:	20000220 	.word	0x20000220
    1974:	00001ff1 	.word	0x00001ff1
    1978:	00001251 	.word	0x00001251
    197c:	00001e79 	.word	0x00001e79
    1980:	00001ec9 	.word	0x00001ec9
    1984:	000003ff 	.word	0x000003ff

00001988 <udd_ep_is_halted>:
    1988:	b510      	push	{r4, lr}
    198a:	0001      	movs	r1, r0
    198c:	4b01      	ldr	r3, [pc, #4]	; (1994 <udd_ep_is_halted+0xc>)
    198e:	4802      	ldr	r0, [pc, #8]	; (1998 <udd_ep_is_halted+0x10>)
    1990:	4798      	blx	r3
    1992:	bd10      	pop	{r4, pc}
    1994:	000021ad 	.word	0x000021ad
    1998:	20000220 	.word	0x20000220

0000199c <udd_ep_set_halt>:
    199c:	230f      	movs	r3, #15
    199e:	b510      	push	{r4, lr}
    19a0:	4003      	ands	r3, r0
    19a2:	0004      	movs	r4, r0
    19a4:	2000      	movs	r0, #0
    19a6:	2b01      	cmp	r3, #1
    19a8:	d807      	bhi.n	19ba <udd_ep_set_halt+0x1e>
    19aa:	0021      	movs	r1, r4
    19ac:	4803      	ldr	r0, [pc, #12]	; (19bc <udd_ep_set_halt+0x20>)
    19ae:	4b04      	ldr	r3, [pc, #16]	; (19c0 <udd_ep_set_halt+0x24>)
    19b0:	4798      	blx	r3
    19b2:	0020      	movs	r0, r4
    19b4:	4b03      	ldr	r3, [pc, #12]	; (19c4 <udd_ep_set_halt+0x28>)
    19b6:	4798      	blx	r3
    19b8:	2001      	movs	r0, #1
    19ba:	bd10      	pop	{r4, pc}
    19bc:	20000220 	.word	0x20000220
    19c0:	000021cb 	.word	0x000021cb
    19c4:	0000181d 	.word	0x0000181d

000019c8 <_usb_ep0_on_tansfer_ok>:
    19c8:	b5f8      	push	{r3, r4, r5, r6, r7, lr}
    19ca:	4f29      	ldr	r7, [pc, #164]	; (1a70 <_usb_ep0_on_tansfer_ok+0xa8>)
    19cc:	783b      	ldrb	r3, [r7, #0]
    19ce:	2b01      	cmp	r3, #1
    19d0:	d141      	bne.n	1a56 <_usb_ep0_on_tansfer_ok+0x8e>
    19d2:	4a28      	ldr	r2, [pc, #160]	; (1a74 <_usb_ep0_on_tansfer_ok+0xac>)
    19d4:	4d28      	ldr	r5, [pc, #160]	; (1a78 <_usb_ep0_on_tansfer_ok+0xb0>)
    19d6:	880e      	ldrh	r6, [r1, #0]
    19d8:	8814      	ldrh	r4, [r2, #0]
    19da:	89ab      	ldrh	r3, [r5, #12]
    19dc:	19a2      	adds	r2, r4, r6
    19de:	4293      	cmp	r3, r2
    19e0:	da01      	bge.n	19e6 <_usb_ep0_on_tansfer_ok+0x1e>
    19e2:	1b1e      	subs	r6, r3, r4
    19e4:	b2b6      	uxth	r6, r6
    19e6:	68ab      	ldr	r3, [r5, #8]
    19e8:	0032      	movs	r2, r6
    19ea:	1918      	adds	r0, r3, r4
    19ec:	4923      	ldr	r1, [pc, #140]	; (1a7c <_usb_ep0_on_tansfer_ok+0xb4>)
    19ee:	4b24      	ldr	r3, [pc, #144]	; (1a80 <_usb_ep0_on_tansfer_ok+0xb8>)
    19f0:	19a4      	adds	r4, r4, r6
    19f2:	4798      	blx	r3
    19f4:	b2a3      	uxth	r3, r4
    19f6:	4c1f      	ldr	r4, [pc, #124]	; (1a74 <_usb_ep0_on_tansfer_ok+0xac>)
    19f8:	8023      	strh	r3, [r4, #0]
    19fa:	2e08      	cmp	r6, #8
    19fc:	d105      	bne.n	1a0a <_usb_ep0_on_tansfer_ok+0x42>
    19fe:	4e21      	ldr	r6, [pc, #132]	; (1a84 <_usb_ep0_on_tansfer_ok+0xbc>)
    1a00:	88e9      	ldrh	r1, [r5, #6]
    1a02:	8832      	ldrh	r2, [r6, #0]
    1a04:	18d2      	adds	r2, r2, r3
    1a06:	4291      	cmp	r1, r2
    1a08:	dc0f      	bgt.n	1a2a <_usb_ep0_on_tansfer_ok+0x62>
    1a0a:	81ab      	strh	r3, [r5, #12]
    1a0c:	696b      	ldr	r3, [r5, #20]
    1a0e:	2b00      	cmp	r3, #0
    1a10:	d008      	beq.n	1a24 <_usb_ep0_on_tansfer_ok+0x5c>
    1a12:	4798      	blx	r3
    1a14:	2800      	cmp	r0, #0
    1a16:	d105      	bne.n	1a24 <_usb_ep0_on_tansfer_ok+0x5c>
    1a18:	2305      	movs	r3, #5
    1a1a:	2000      	movs	r0, #0
    1a1c:	703b      	strb	r3, [r7, #0]
    1a1e:	4b1a      	ldr	r3, [pc, #104]	; (1a88 <_usb_ep0_on_tansfer_ok+0xc0>)
    1a20:	4798      	blx	r3
    1a22:	bdf8      	pop	{r3, r4, r5, r6, r7, pc}
    1a24:	4b19      	ldr	r3, [pc, #100]	; (1a8c <_usb_ep0_on_tansfer_ok+0xc4>)
    1a26:	4798      	blx	r3
    1a28:	e7fb      	b.n	1a22 <_usb_ep0_on_tansfer_ok+0x5a>
    1a2a:	89aa      	ldrh	r2, [r5, #12]
    1a2c:	429a      	cmp	r2, r3
    1a2e:	d10b      	bne.n	1a48 <_usb_ep0_on_tansfer_ok+0x80>
    1a30:	696b      	ldr	r3, [r5, #20]
    1a32:	2b00      	cmp	r3, #0
    1a34:	d0f0      	beq.n	1a18 <_usb_ep0_on_tansfer_ok+0x50>
    1a36:	4798      	blx	r3
    1a38:	2800      	cmp	r0, #0
    1a3a:	d0ed      	beq.n	1a18 <_usb_ep0_on_tansfer_ok+0x50>
    1a3c:	8833      	ldrh	r3, [r6, #0]
    1a3e:	8822      	ldrh	r2, [r4, #0]
    1a40:	189b      	adds	r3, r3, r2
    1a42:	8033      	strh	r3, [r6, #0]
    1a44:	2300      	movs	r3, #0
    1a46:	8023      	strh	r3, [r4, #0]
    1a48:	2308      	movs	r3, #8
    1a4a:	4a0c      	ldr	r2, [pc, #48]	; (1a7c <_usb_ep0_on_tansfer_ok+0xb4>)
    1a4c:	2100      	movs	r1, #0
    1a4e:	4c10      	ldr	r4, [pc, #64]	; (1a90 <_usb_ep0_on_tansfer_ok+0xc8>)
    1a50:	4810      	ldr	r0, [pc, #64]	; (1a94 <_usb_ep0_on_tansfer_ok+0xcc>)
    1a52:	47a0      	blx	r4
    1a54:	e7e5      	b.n	1a22 <_usb_ep0_on_tansfer_ok+0x5a>
    1a56:	2b02      	cmp	r3, #2
    1a58:	d101      	bne.n	1a5e <_usb_ep0_on_tansfer_ok+0x96>
    1a5a:	4b0f      	ldr	r3, [pc, #60]	; (1a98 <_usb_ep0_on_tansfer_ok+0xd0>)
    1a5c:	e7e3      	b.n	1a26 <_usb_ep0_on_tansfer_ok+0x5e>
    1a5e:	4b06      	ldr	r3, [pc, #24]	; (1a78 <_usb_ep0_on_tansfer_ok+0xb0>)
    1a60:	691b      	ldr	r3, [r3, #16]
    1a62:	2b00      	cmp	r3, #0
    1a64:	d000      	beq.n	1a68 <_usb_ep0_on_tansfer_ok+0xa0>
    1a66:	4798      	blx	r3
    1a68:	2300      	movs	r3, #0
    1a6a:	703b      	strb	r3, [r7, #0]
    1a6c:	e7d9      	b.n	1a22 <_usb_ep0_on_tansfer_ok+0x5a>
    1a6e:	46c0      	nop			; (mov r8, r8)
    1a70:	20000152 	.word	0x20000152
    1a74:	2000014e 	.word	0x2000014e
    1a78:	20000388 	.word	0x20000388
    1a7c:	200003a0 	.word	0x200003a0
    1a80:	00003059 	.word	0x00003059
    1a84:	20000150 	.word	0x20000150
    1a88:	0000199d 	.word	0x0000199d
    1a8c:	000014a9 	.word	0x000014a9
    1a90:	00002291 	.word	0x00002291
    1a94:	20000220 	.word	0x20000220
    1a98:	0000152d 	.word	0x0000152d

00001a9c <udd_ep_clear_halt>:
    1a9c:	230f      	movs	r3, #15
    1a9e:	b570      	push	{r4, r5, r6, lr}
    1aa0:	4003      	ands	r3, r0
    1aa2:	0006      	movs	r6, r0
    1aa4:	2400      	movs	r4, #0
    1aa6:	2b01      	cmp	r3, #1
    1aa8:	d80e      	bhi.n	1ac8 <udd_ep_clear_halt+0x2c>
    1aaa:	4b08      	ldr	r3, [pc, #32]	; (1acc <udd_ep_clear_halt+0x30>)
    1aac:	4798      	blx	r3
    1aae:	0005      	movs	r5, r0
    1ab0:	4b07      	ldr	r3, [pc, #28]	; (1ad0 <udd_ep_clear_halt+0x34>)
    1ab2:	0031      	movs	r1, r6
    1ab4:	4807      	ldr	r0, [pc, #28]	; (1ad4 <udd_ep_clear_halt+0x38>)
    1ab6:	4798      	blx	r3
    1ab8:	7cab      	ldrb	r3, [r5, #18]
    1aba:	3401      	adds	r4, #1
    1abc:	4223      	tst	r3, r4
    1abe:	d003      	beq.n	1ac8 <udd_ep_clear_halt+0x2c>
    1ac0:	43a3      	bics	r3, r4
    1ac2:	74ab      	strb	r3, [r5, #18]
    1ac4:	682b      	ldr	r3, [r5, #0]
    1ac6:	4798      	blx	r3
    1ac8:	0020      	movs	r0, r4
    1aca:	bd70      	pop	{r4, r5, r6, pc}
    1acc:	0000122d 	.word	0x0000122d
    1ad0:	000021e5 	.word	0x000021e5
    1ad4:	20000220 	.word	0x20000220

00001ad8 <udd_ep_run>:
    1ad8:	b5f0      	push	{r4, r5, r6, r7, lr}
    1ada:	b085      	sub	sp, #20
    1adc:	9203      	str	r2, [sp, #12]
    1ade:	001e      	movs	r6, r3
    1ae0:	0002      	movs	r2, r0
    1ae2:	230f      	movs	r3, #15
    1ae4:	401a      	ands	r2, r3
    1ae6:	9002      	str	r0, [sp, #8]
    1ae8:	000d      	movs	r5, r1
    1aea:	9201      	str	r2, [sp, #4]
    1aec:	2a01      	cmp	r2, #1
    1aee:	d903      	bls.n	1af8 <udd_ep_run+0x20>
    1af0:	2700      	movs	r7, #0
    1af2:	0038      	movs	r0, r7
    1af4:	b005      	add	sp, #20
    1af6:	bdf0      	pop	{r4, r5, r6, r7, pc}
    1af8:	9802      	ldr	r0, [sp, #8]
    1afa:	4b4a      	ldr	r3, [pc, #296]	; (1c24 <udd_ep_run+0x14c>)
    1afc:	4798      	blx	r3
    1afe:	1e07      	subs	r7, r0, #0
    1b00:	d1f6      	bne.n	1af0 <udd_ep_run+0x18>
    1b02:	4b49      	ldr	r3, [pc, #292]	; (1c28 <udd_ep_run+0x150>)
    1b04:	9802      	ldr	r0, [sp, #8]
    1b06:	4798      	blx	r3
    1b08:	0004      	movs	r4, r0
    1b0a:	4b48      	ldr	r3, [pc, #288]	; (1c2c <udd_ep_run+0x154>)
    1b0c:	4798      	blx	r3
    1b0e:	2301      	movs	r3, #1
    1b10:	7ca2      	ldrb	r2, [r4, #18]
    1b12:	421a      	tst	r2, r3
    1b14:	d004      	beq.n	1b20 <udd_ep_run+0x48>
    1b16:	2800      	cmp	r0, #0
    1b18:	d0ea      	beq.n	1af0 <udd_ep_run+0x18>
    1b1a:	4b45      	ldr	r3, [pc, #276]	; (1c30 <udd_ep_run+0x158>)
    1b1c:	4798      	blx	r3
    1b1e:	e7e8      	b.n	1af2 <udd_ep_run+0x1a>
    1b20:	4313      	orrs	r3, r2
    1b22:	74a3      	strb	r3, [r4, #18]
    1b24:	2800      	cmp	r0, #0
    1b26:	d001      	beq.n	1b2c <udd_ep_run+0x54>
    1b28:	4b41      	ldr	r3, [pc, #260]	; (1c30 <udd_ep_run+0x158>)
    1b2a:	4798      	blx	r3
    1b2c:	9b03      	ldr	r3, [sp, #12]
    1b2e:	2202      	movs	r2, #2
    1b30:	6063      	str	r3, [r4, #4]
    1b32:	2300      	movs	r3, #0
    1b34:	60e3      	str	r3, [r4, #12]
    1b36:	9b0a      	ldr	r3, [sp, #40]	; 0x28
    1b38:	60a6      	str	r6, [r4, #8]
    1b3a:	6023      	str	r3, [r4, #0]
    1b3c:	2301      	movs	r3, #1
    1b3e:	401d      	ands	r5, r3
    1b40:	0069      	lsls	r1, r5, #1
    1b42:	7ca5      	ldrb	r5, [r4, #18]
    1b44:	4395      	bics	r5, r2
    1b46:	430d      	orrs	r5, r1
    1b48:	2104      	movs	r1, #4
    1b4a:	438d      	bics	r5, r1
    1b4c:	4669      	mov	r1, sp
    1b4e:	7a09      	ldrb	r1, [r1, #8]
    1b50:	74a5      	strb	r5, [r4, #18]
    1b52:	b249      	sxtb	r1, r1
    1b54:	2900      	cmp	r1, #0
    1b56:	da3b      	bge.n	1bd0 <udd_ep_run+0xf8>
    1b58:	b2ed      	uxtb	r5, r5
    1b5a:	2e00      	cmp	r6, #0
    1b5c:	d026      	beq.n	1bac <udd_ep_run+0xd4>
    1b5e:	4b35      	ldr	r3, [pc, #212]	; (1c34 <udd_ep_run+0x15c>)
    1b60:	b2b6      	uxth	r6, r6
    1b62:	429e      	cmp	r6, r3
    1b64:	d906      	bls.n	1b74 <udd_ep_run+0x9c>
    1b66:	0018      	movs	r0, r3
    1b68:	8a21      	ldrh	r1, [r4, #16]
    1b6a:	4b33      	ldr	r3, [pc, #204]	; (1c38 <udd_ep_run+0x160>)
    1b6c:	4798      	blx	r3
    1b6e:	4b31      	ldr	r3, [pc, #196]	; (1c34 <udd_ep_run+0x15c>)
    1b70:	1a5e      	subs	r6, r3, r1
    1b72:	b2b6      	uxth	r6, r6
    1b74:	07ab      	lsls	r3, r5, #30
    1b76:	d507      	bpl.n	1b88 <udd_ep_run+0xb0>
    1b78:	8a21      	ldrh	r1, [r4, #16]
    1b7a:	0030      	movs	r0, r6
    1b7c:	4b2f      	ldr	r3, [pc, #188]	; (1c3c <udd_ep_run+0x164>)
    1b7e:	4798      	blx	r3
    1b80:	b289      	uxth	r1, r1
    1b82:	4248      	negs	r0, r1
    1b84:	4148      	adcs	r0, r1
    1b86:	b2c7      	uxtb	r7, r0
    1b88:	2001      	movs	r0, #1
    1b8a:	2302      	movs	r3, #2
    1b8c:	4038      	ands	r0, r7
    1b8e:	0041      	lsls	r1, r0, #1
    1b90:	7ca0      	ldrb	r0, [r4, #18]
    1b92:	4398      	bics	r0, r3
    1b94:	4308      	orrs	r0, r1
    1b96:	74a0      	strb	r0, [r4, #18]
    1b98:	0033      	movs	r3, r6
    1b9a:	9a03      	ldr	r2, [sp, #12]
    1b9c:	9901      	ldr	r1, [sp, #4]
    1b9e:	4828      	ldr	r0, [pc, #160]	; (1c40 <udd_ep_run+0x168>)
    1ba0:	4c28      	ldr	r4, [pc, #160]	; (1c44 <udd_ep_run+0x16c>)
    1ba2:	47a0      	blx	r4
    1ba4:	4243      	negs	r3, r0
    1ba6:	4158      	adcs	r0, r3
    1ba8:	b2c7      	uxtb	r7, r0
    1baa:	e7a2      	b.n	1af2 <udd_ep_run+0x1a>
    1bac:	4215      	tst	r5, r2
    1bae:	d002      	beq.n	1bb6 <udd_ep_run+0xde>
    1bb0:	4395      	bics	r5, r2
    1bb2:	74a5      	strb	r5, [r4, #18]
    1bb4:	e7f0      	b.n	1b98 <udd_ep_run+0xc0>
    1bb6:	439d      	bics	r5, r3
    1bb8:	74a5      	strb	r5, [r4, #18]
    1bba:	9b0a      	ldr	r3, [sp, #40]	; 0x28
    1bbc:	2b00      	cmp	r3, #0
    1bbe:	d101      	bne.n	1bc4 <udd_ep_run+0xec>
    1bc0:	2701      	movs	r7, #1
    1bc2:	e796      	b.n	1af2 <udd_ep_run+0x1a>
    1bc4:	2100      	movs	r1, #0
    1bc6:	9a02      	ldr	r2, [sp, #8]
    1bc8:	0008      	movs	r0, r1
    1bca:	9b0a      	ldr	r3, [sp, #40]	; 0x28
    1bcc:	4798      	blx	r3
    1bce:	e7f7      	b.n	1bc0 <udd_ep_run+0xe8>
    1bd0:	2e00      	cmp	r6, #0
    1bd2:	d022      	beq.n	1c1a <udd_ep_run+0x142>
    1bd4:	8a27      	ldrh	r7, [r4, #16]
    1bd6:	4d17      	ldr	r5, [pc, #92]	; (1c34 <udd_ep_run+0x15c>)
    1bd8:	b2b6      	uxth	r6, r6
    1bda:	0039      	movs	r1, r7
    1bdc:	42ae      	cmp	r6, r5
    1bde:	d916      	bls.n	1c0e <udd_ep_run+0x136>
    1be0:	4b15      	ldr	r3, [pc, #84]	; (1c38 <udd_ep_run+0x160>)
    1be2:	0028      	movs	r0, r5
    1be4:	4798      	blx	r3
    1be6:	1a6b      	subs	r3, r5, r1
    1be8:	b29b      	uxth	r3, r3
    1bea:	4815      	ldr	r0, [pc, #84]	; (1c40 <udd_ep_run+0x168>)
    1bec:	4d16      	ldr	r5, [pc, #88]	; (1c48 <udd_ep_run+0x170>)
    1bee:	9a03      	ldr	r2, [sp, #12]
    1bf0:	42bb      	cmp	r3, r7
    1bf2:	d209      	bcs.n	1c08 <udd_ep_run+0x130>
    1bf4:	2304      	movs	r3, #4
    1bf6:	7ca2      	ldrb	r2, [r4, #18]
    1bf8:	4313      	orrs	r3, r2
    1bfa:	74a3      	strb	r3, [r4, #18]
    1bfc:	9b01      	ldr	r3, [sp, #4]
    1bfe:	1e5a      	subs	r2, r3, #1
    1c00:	4b12      	ldr	r3, [pc, #72]	; (1c4c <udd_ep_run+0x174>)
    1c02:	0192      	lsls	r2, r2, #6
    1c04:	18d2      	adds	r2, r2, r3
    1c06:	003b      	movs	r3, r7
    1c08:	9901      	ldr	r1, [sp, #4]
    1c0a:	47a8      	blx	r5
    1c0c:	e7ca      	b.n	1ba4 <udd_ep_run+0xcc>
    1c0e:	0030      	movs	r0, r6
    1c10:	4b0a      	ldr	r3, [pc, #40]	; (1c3c <udd_ep_run+0x164>)
    1c12:	4798      	blx	r3
    1c14:	1a76      	subs	r6, r6, r1
    1c16:	b2b3      	uxth	r3, r6
    1c18:	e7e7      	b.n	1bea <udd_ep_run+0x112>
    1c1a:	7ca2      	ldrb	r2, [r4, #18]
    1c1c:	439a      	bics	r2, r3
    1c1e:	74a2      	strb	r2, [r4, #18]
    1c20:	e7cb      	b.n	1bba <udd_ep_run+0xe2>
    1c22:	46c0      	nop			; (mov r8, r8)
    1c24:	00001989 	.word	0x00001989
    1c28:	0000122d 	.word	0x0000122d
    1c2c:	00001209 	.word	0x00001209
    1c30:	000015dd 	.word	0x000015dd
    1c34:	00001fff 	.word	0x00001fff
    1c38:	00002fc5 	.word	0x00002fc5
    1c3c:	00002df1 	.word	0x00002df1
    1c40:	20000220 	.word	0x20000220
    1c44:	00002245 	.word	0x00002245
    1c48:	00002291 	.word	0x00002291
    1c4c:	200001e0 	.word	0x200001e0

00001c50 <udd_set_address>:
    1c50:	2280      	movs	r2, #128	; 0x80
    1c52:	4b02      	ldr	r3, [pc, #8]	; (1c5c <udd_set_address+0xc>)
    1c54:	4310      	orrs	r0, r2
    1c56:	681b      	ldr	r3, [r3, #0]
    1c58:	7298      	strb	r0, [r3, #10]
    1c5a:	4770      	bx	lr
    1c5c:	20000220 	.word	0x20000220

00001c60 <udd_getaddress>:
    1c60:	4b02      	ldr	r3, [pc, #8]	; (1c6c <udd_getaddress+0xc>)
    1c62:	681b      	ldr	r3, [r3, #0]
    1c64:	7a98      	ldrb	r0, [r3, #10]
    1c66:	0640      	lsls	r0, r0, #25
    1c68:	0e40      	lsrs	r0, r0, #25
    1c6a:	4770      	bx	lr
    1c6c:	20000220 	.word	0x20000220

00001c70 <udd_set_setup_payload>:
    1c70:	4b01      	ldr	r3, [pc, #4]	; (1c78 <udd_set_setup_payload+0x8>)
    1c72:	6098      	str	r0, [r3, #8]
    1c74:	8199      	strh	r1, [r3, #12]
    1c76:	4770      	bx	lr
    1c78:	20000388 	.word	0x20000388

00001c7c <udd_detach>:
    1c7c:	2001      	movs	r0, #1
    1c7e:	b510      	push	{r4, lr}
    1c80:	4b03      	ldr	r3, [pc, #12]	; (1c90 <udd_detach+0x14>)
    1c82:	681a      	ldr	r2, [r3, #0]
    1c84:	8913      	ldrh	r3, [r2, #8]
    1c86:	4303      	orrs	r3, r0
    1c88:	8113      	strh	r3, [r2, #8]
    1c8a:	4b02      	ldr	r3, [pc, #8]	; (1c94 <udd_detach+0x18>)
    1c8c:	4798      	blx	r3
    1c8e:	bd10      	pop	{r4, pc}
    1c90:	20000220 	.word	0x20000220
    1c94:	000016e1 	.word	0x000016e1

00001c98 <udd_attach>:
    1c98:	b5f8      	push	{r3, r4, r5, r6, r7, lr}
    1c9a:	2701      	movs	r7, #1
    1c9c:	2003      	movs	r0, #3
    1c9e:	4b16      	ldr	r3, [pc, #88]	; (1cf8 <udd_attach+0x60>)
    1ca0:	4798      	blx	r3
    1ca2:	4c16      	ldr	r4, [pc, #88]	; (1cfc <udd_attach+0x64>)
    1ca4:	4e16      	ldr	r6, [pc, #88]	; (1d00 <udd_attach+0x68>)
    1ca6:	6822      	ldr	r2, [r4, #0]
    1ca8:	2104      	movs	r1, #4
    1caa:	8913      	ldrh	r3, [r2, #8]
    1cac:	0020      	movs	r0, r4
    1cae:	43bb      	bics	r3, r7
    1cb0:	8113      	strh	r3, [r2, #8]
    1cb2:	4a14      	ldr	r2, [pc, #80]	; (1d04 <udd_attach+0x6c>)
    1cb4:	47b0      	blx	r6
    1cb6:	4a14      	ldr	r2, [pc, #80]	; (1d08 <udd_attach+0x70>)
    1cb8:	2100      	movs	r1, #0
    1cba:	0020      	movs	r0, r4
    1cbc:	47b0      	blx	r6
    1cbe:	0039      	movs	r1, r7
    1cc0:	4a12      	ldr	r2, [pc, #72]	; (1d0c <udd_attach+0x74>)
    1cc2:	0020      	movs	r0, r4
    1cc4:	47b0      	blx	r6
    1cc6:	4a12      	ldr	r2, [pc, #72]	; (1d10 <udd_attach+0x78>)
    1cc8:	2102      	movs	r1, #2
    1cca:	0020      	movs	r0, r4
    1ccc:	47b0      	blx	r6
    1cce:	4d11      	ldr	r5, [pc, #68]	; (1d14 <udd_attach+0x7c>)
    1cd0:	2104      	movs	r1, #4
    1cd2:	0020      	movs	r0, r4
    1cd4:	47a8      	blx	r5
    1cd6:	2100      	movs	r1, #0
    1cd8:	0020      	movs	r0, r4
    1cda:	47a8      	blx	r5
    1cdc:	0039      	movs	r1, r7
    1cde:	0020      	movs	r0, r4
    1ce0:	47a8      	blx	r5
    1ce2:	2102      	movs	r1, #2
    1ce4:	0020      	movs	r0, r4
    1ce6:	47a8      	blx	r5
    1ce8:	4a0b      	ldr	r2, [pc, #44]	; (1d18 <udd_attach+0x80>)
    1cea:	2106      	movs	r1, #6
    1cec:	0020      	movs	r0, r4
    1cee:	47b0      	blx	r6
    1cf0:	2106      	movs	r1, #6
    1cf2:	0020      	movs	r0, r4
    1cf4:	47a8      	blx	r5
    1cf6:	bdf8      	pop	{r3, r4, r5, r6, r7, pc}
    1cf8:	000016e1 	.word	0x000016e1
    1cfc:	20000220 	.word	0x20000220
    1d00:	00001e19 	.word	0x00001e19
    1d04:	000017e9 	.word	0x000017e9
    1d08:	000015c9 	.word	0x000015c9
    1d0c:	000013fd 	.word	0x000013fd
    1d10:	00001795 	.word	0x00001795
    1d14:	00001e3d 	.word	0x00001e3d
    1d18:	00001761 	.word	0x00001761

00001d1c <_uhd_vbus_handler>:
    1d1c:	4b08      	ldr	r3, [pc, #32]	; (1d40 <_uhd_vbus_handler+0x24>)
    1d1e:	b510      	push	{r4, lr}
    1d20:	2100      	movs	r1, #0
    1d22:	200e      	movs	r0, #14
    1d24:	4798      	blx	r3
    1d26:	4b07      	ldr	r3, [pc, #28]	; (1d44 <_uhd_vbus_handler+0x28>)
    1d28:	6a1b      	ldr	r3, [r3, #32]
    1d2a:	045b      	lsls	r3, r3, #17
    1d2c:	d506      	bpl.n	1d3c <_uhd_vbus_handler+0x20>
    1d2e:	4b06      	ldr	r3, [pc, #24]	; (1d48 <_uhd_vbus_handler+0x2c>)
    1d30:	4798      	blx	r3
    1d32:	2100      	movs	r1, #0
    1d34:	200e      	movs	r0, #14
    1d36:	4b05      	ldr	r3, [pc, #20]	; (1d4c <_uhd_vbus_handler+0x30>)
    1d38:	4798      	blx	r3
    1d3a:	bd10      	pop	{r4, pc}
    1d3c:	4b04      	ldr	r3, [pc, #16]	; (1d50 <_uhd_vbus_handler+0x34>)
    1d3e:	e7f7      	b.n	1d30 <_uhd_vbus_handler+0x14>
    1d40:	00000b79 	.word	0x00000b79
    1d44:	41004400 	.word	0x41004400
    1d48:	00001c99 	.word	0x00001c99
    1d4c:	00000b59 	.word	0x00000b59
    1d50:	00001c7d 	.word	0x00001c7d

00001d54 <udd_enable>:
    1d54:	b5f0      	push	{r4, r5, r6, r7, lr}
    1d56:	4b20      	ldr	r3, [pc, #128]	; (1dd8 <udd_enable+0x84>)
    1d58:	b085      	sub	sp, #20
    1d5a:	4798      	blx	r3
    1d5c:	4b1f      	ldr	r3, [pc, #124]	; (1ddc <udd_enable+0x88>)
    1d5e:	0007      	movs	r7, r0
    1d60:	4668      	mov	r0, sp
    1d62:	4798      	blx	r3
    1d64:	2400      	movs	r4, #0
    1d66:	466b      	mov	r3, sp
    1d68:	4d1d      	ldr	r5, [pc, #116]	; (1de0 <udd_enable+0x8c>)
    1d6a:	466a      	mov	r2, sp
    1d6c:	491d      	ldr	r1, [pc, #116]	; (1de4 <udd_enable+0x90>)
    1d6e:	0028      	movs	r0, r5
    1d70:	709c      	strb	r4, [r3, #2]
    1d72:	4b1d      	ldr	r3, [pc, #116]	; (1de8 <udd_enable+0x94>)
    1d74:	4798      	blx	r3
    1d76:	0028      	movs	r0, r5
    1d78:	4b1c      	ldr	r3, [pc, #112]	; (1dec <udd_enable+0x98>)
    1d7a:	4798      	blx	r3
    1d7c:	4b1c      	ldr	r3, [pc, #112]	; (1df0 <udd_enable+0x9c>)
    1d7e:	ad01      	add	r5, sp, #4
    1d80:	4798      	blx	r3
    1d82:	2001      	movs	r0, #1
    1d84:	4b1b      	ldr	r3, [pc, #108]	; (1df4 <udd_enable+0xa0>)
    1d86:	4798      	blx	r3
    1d88:	0028      	movs	r0, r5
    1d8a:	4b1b      	ldr	r3, [pc, #108]	; (1df8 <udd_enable+0xa4>)
    1d8c:	4798      	blx	r3
    1d8e:	2303      	movs	r3, #3
    1d90:	260e      	movs	r6, #14
    1d92:	72eb      	strb	r3, [r5, #11]
    1d94:	3b02      	subs	r3, #2
    1d96:	72ab      	strb	r3, [r5, #10]
    1d98:	0021      	movs	r1, r4
    1d9a:	4b18      	ldr	r3, [pc, #96]	; (1dfc <udd_enable+0xa8>)
    1d9c:	0030      	movs	r0, r6
    1d9e:	606c      	str	r4, [r5, #4]
    1da0:	722c      	strb	r4, [r5, #8]
    1da2:	9601      	str	r6, [sp, #4]
    1da4:	4798      	blx	r3
    1da6:	0029      	movs	r1, r5
    1da8:	0030      	movs	r0, r6
    1daa:	4b15      	ldr	r3, [pc, #84]	; (1e00 <udd_enable+0xac>)
    1dac:	4798      	blx	r3
    1dae:	4d15      	ldr	r5, [pc, #84]	; (1e04 <udd_enable+0xb0>)
    1db0:	0022      	movs	r2, r4
    1db2:	0031      	movs	r1, r6
    1db4:	4b14      	ldr	r3, [pc, #80]	; (1e08 <udd_enable+0xb4>)
    1db6:	0028      	movs	r0, r5
    1db8:	4798      	blx	r3
    1dba:	4b14      	ldr	r3, [pc, #80]	; (1e0c <udd_enable+0xb8>)
    1dbc:	0021      	movs	r1, r4
    1dbe:	0030      	movs	r0, r6
    1dc0:	4798      	blx	r3
    1dc2:	4b13      	ldr	r3, [pc, #76]	; (1e10 <udd_enable+0xbc>)
    1dc4:	6a1b      	ldr	r3, [r3, #32]
    1dc6:	045b      	lsls	r3, r3, #17
    1dc8:	d500      	bpl.n	1dcc <udd_enable+0x78>
    1dca:	47a8      	blx	r5
    1dcc:	2f00      	cmp	r7, #0
    1dce:	d001      	beq.n	1dd4 <udd_enable+0x80>
    1dd0:	4b10      	ldr	r3, [pc, #64]	; (1e14 <udd_enable+0xc0>)
    1dd2:	4798      	blx	r3
    1dd4:	b005      	add	sp, #20
    1dd6:	bdf0      	pop	{r4, r5, r6, r7, pc}
    1dd8:	00001209 	.word	0x00001209
    1ddc:	000028cd 	.word	0x000028cd
    1de0:	20000220 	.word	0x20000220
    1de4:	41005000 	.word	0x41005000
    1de8:	000028dd 	.word	0x000028dd
    1dec:	00002309 	.word	0x00002309
    1df0:	000015f1 	.word	0x000015f1
    1df4:	000016e1 	.word	0x000016e1
    1df8:	00000c6d 	.word	0x00000c6d
    1dfc:	00000b79 	.word	0x00000b79
    1e00:	00000c81 	.word	0x00000c81
    1e04:	00001d1d 	.word	0x00001d1d
    1e08:	00000b31 	.word	0x00000b31
    1e0c:	00000b59 	.word	0x00000b59
    1e10:	41004400 	.word	0x41004400
    1e14:	000015dd 	.word	0x000015dd

00001e18 <usb_device_register_callback>:
    1e18:	000b      	movs	r3, r1
    1e1a:	332e      	adds	r3, #46	; 0x2e
    1e1c:	009b      	lsls	r3, r3, #2
    1e1e:	b510      	push	{r4, lr}
    1e20:	501a      	str	r2, [r3, r0]
    1e22:	22aa      	movs	r2, #170	; 0xaa
    1e24:	4c04      	ldr	r4, [pc, #16]	; (1e38 <usb_device_register_callback+0x20>)
    1e26:	0052      	lsls	r2, r2, #1
    1e28:	0049      	lsls	r1, r1, #1
    1e2a:	5a83      	ldrh	r3, [r0, r2]
    1e2c:	5b09      	ldrh	r1, [r1, r4]
    1e2e:	430b      	orrs	r3, r1
    1e30:	5283      	strh	r3, [r0, r2]
    1e32:	2000      	movs	r0, #0
    1e34:	bd10      	pop	{r4, pc}
    1e36:	46c0      	nop			; (mov r8, r8)
    1e38:	0000307a 	.word	0x0000307a

00001e3c <usb_device_enable_callback>:
    1e3c:	4b06      	ldr	r3, [pc, #24]	; (1e58 <usb_device_enable_callback+0x1c>)
    1e3e:	0049      	lsls	r1, r1, #1
    1e40:	5acb      	ldrh	r3, [r1, r3]
    1e42:	21ab      	movs	r1, #171	; 0xab
    1e44:	6802      	ldr	r2, [r0, #0]
    1e46:	0049      	lsls	r1, r1, #1
    1e48:	8393      	strh	r3, [r2, #28]
    1e4a:	5a42      	ldrh	r2, [r0, r1]
    1e4c:	431a      	orrs	r2, r3
    1e4e:	5242      	strh	r2, [r0, r1]
    1e50:	6802      	ldr	r2, [r0, #0]
    1e52:	2000      	movs	r0, #0
    1e54:	8313      	strh	r3, [r2, #24]
    1e56:	4770      	bx	lr
    1e58:	0000307a 	.word	0x0000307a

00001e5c <usb_device_disable_callback>:
    1e5c:	4b05      	ldr	r3, [pc, #20]	; (1e74 <usb_device_disable_callback+0x18>)
    1e5e:	0049      	lsls	r1, r1, #1
    1e60:	5aca      	ldrh	r2, [r1, r3]
    1e62:	21ab      	movs	r1, #171	; 0xab
    1e64:	0049      	lsls	r1, r1, #1
    1e66:	5a43      	ldrh	r3, [r0, r1]
    1e68:	4393      	bics	r3, r2
    1e6a:	5243      	strh	r3, [r0, r1]
    1e6c:	6803      	ldr	r3, [r0, #0]
    1e6e:	2000      	movs	r0, #0
    1e70:	829a      	strh	r2, [r3, #20]
    1e72:	4770      	bx	lr
    1e74:	0000307a 	.word	0x0000307a

00001e78 <usb_device_endpoint_register_callback>:
    1e78:	b510      	push	{r4, lr}
    1e7a:	008c      	lsls	r4, r1, #2
    1e7c:	18a4      	adds	r4, r4, r2
    1e7e:	3434      	adds	r4, #52	; 0x34
    1e80:	00a4      	lsls	r4, r4, #2
    1e82:	1904      	adds	r4, r0, r4
    1e84:	1840      	adds	r0, r0, r1
    1e86:	3059      	adds	r0, #89	; 0x59
    1e88:	4904      	ldr	r1, [pc, #16]	; (1e9c <usb_device_endpoint_register_callback+0x24>)
    1e8a:	6063      	str	r3, [r4, #4]
    1e8c:	30ff      	adds	r0, #255	; 0xff
    1e8e:	7803      	ldrb	r3, [r0, #0]
    1e90:	5c8a      	ldrb	r2, [r1, r2]
    1e92:	4313      	orrs	r3, r2
    1e94:	7003      	strb	r3, [r0, #0]
    1e96:	2000      	movs	r0, #0
    1e98:	bd10      	pop	{r4, pc}
    1e9a:	46c0      	nop			; (mov r8, r8)
    1e9c:	00003088 	.word	0x00003088

00001ea0 <usb_device_endpoint_unregister_callback>:
    1ea0:	008b      	lsls	r3, r1, #2
    1ea2:	189b      	adds	r3, r3, r2
    1ea4:	3334      	adds	r3, #52	; 0x34
    1ea6:	b510      	push	{r4, lr}
    1ea8:	009b      	lsls	r3, r3, #2
    1eaa:	0004      	movs	r4, r0
    1eac:	18c3      	adds	r3, r0, r3
    1eae:	2000      	movs	r0, #0
    1eb0:	1864      	adds	r4, r4, r1
    1eb2:	6058      	str	r0, [r3, #4]
    1eb4:	3459      	adds	r4, #89	; 0x59
    1eb6:	4b03      	ldr	r3, [pc, #12]	; (1ec4 <usb_device_endpoint_unregister_callback+0x24>)
    1eb8:	34ff      	adds	r4, #255	; 0xff
    1eba:	5c9a      	ldrb	r2, [r3, r2]
    1ebc:	7823      	ldrb	r3, [r4, #0]
    1ebe:	4393      	bics	r3, r2
    1ec0:	7023      	strb	r3, [r4, #0]
    1ec2:	bd10      	pop	{r4, pc}
    1ec4:	00003088 	.word	0x00003088

00001ec8 <usb_device_endpoint_enable_callback>:
    1ec8:	230f      	movs	r3, #15
    1eca:	b570      	push	{r4, r5, r6, lr}
    1ecc:	400b      	ands	r3, r1
    1ece:	18c4      	adds	r4, r0, r3
    1ed0:	3461      	adds	r4, #97	; 0x61
    1ed2:	4e1f      	ldr	r6, [pc, #124]	; (1f50 <usb_device_endpoint_enable_callback+0x88>)
    1ed4:	34ff      	adds	r4, #255	; 0xff
    1ed6:	7825      	ldrb	r5, [r4, #0]
    1ed8:	5cb6      	ldrb	r6, [r6, r2]
    1eda:	4335      	orrs	r5, r6
    1edc:	7025      	strb	r5, [r4, #0]
    1ede:	2a00      	cmp	r2, #0
    1ee0:	d10f      	bne.n	1f02 <usb_device_endpoint_enable_callback+0x3a>
    1ee2:	6802      	ldr	r2, [r0, #0]
    1ee4:	2b00      	cmp	r3, #0
    1ee6:	d103      	bne.n	1ef0 <usb_device_endpoint_enable_callback+0x28>
    1ee8:	32ff      	adds	r2, #255	; 0xff
    1eea:	3303      	adds	r3, #3
    1eec:	7293      	strb	r3, [r2, #10]
    1eee:	e021      	b.n	1f34 <usb_device_endpoint_enable_callback+0x6c>
    1ef0:	015b      	lsls	r3, r3, #5
    1ef2:	18d2      	adds	r2, r2, r3
    1ef4:	b249      	sxtb	r1, r1
    1ef6:	32ff      	adds	r2, #255	; 0xff
    1ef8:	2302      	movs	r3, #2
    1efa:	2900      	cmp	r1, #0
    1efc:	dbf6      	blt.n	1eec <usb_device_endpoint_enable_callback+0x24>
    1efe:	2301      	movs	r3, #1
    1f00:	e7f4      	b.n	1eec <usb_device_endpoint_enable_callback+0x24>
    1f02:	2a01      	cmp	r2, #1
    1f04:	d10e      	bne.n	1f24 <usb_device_endpoint_enable_callback+0x5c>
    1f06:	6802      	ldr	r2, [r0, #0]
    1f08:	2b00      	cmp	r3, #0
    1f0a:	d102      	bne.n	1f12 <usb_device_endpoint_enable_callback+0x4a>
    1f0c:	32ff      	adds	r2, #255	; 0xff
    1f0e:	330c      	adds	r3, #12
    1f10:	e7ec      	b.n	1eec <usb_device_endpoint_enable_callback+0x24>
    1f12:	015b      	lsls	r3, r3, #5
    1f14:	18d2      	adds	r2, r2, r3
    1f16:	b249      	sxtb	r1, r1
    1f18:	32ff      	adds	r2, #255	; 0xff
    1f1a:	2308      	movs	r3, #8
    1f1c:	2900      	cmp	r1, #0
    1f1e:	dbe5      	blt.n	1eec <usb_device_endpoint_enable_callback+0x24>
    1f20:	2304      	movs	r3, #4
    1f22:	e7e3      	b.n	1eec <usb_device_endpoint_enable_callback+0x24>
    1f24:	2a02      	cmp	r2, #2
    1f26:	d107      	bne.n	1f38 <usb_device_endpoint_enable_callback+0x70>
    1f28:	6802      	ldr	r2, [r0, #0]
    1f2a:	015b      	lsls	r3, r3, #5
    1f2c:	18d3      	adds	r3, r2, r3
    1f2e:	2210      	movs	r2, #16
    1f30:	33ff      	adds	r3, #255	; 0xff
    1f32:	729a      	strb	r2, [r3, #10]
    1f34:	2000      	movs	r0, #0
    1f36:	bd70      	pop	{r4, r5, r6, pc}
    1f38:	2a03      	cmp	r2, #3
    1f3a:	d1fb      	bne.n	1f34 <usb_device_endpoint_enable_callback+0x6c>
    1f3c:	6802      	ldr	r2, [r0, #0]
    1f3e:	015b      	lsls	r3, r3, #5
    1f40:	18d2      	adds	r2, r2, r3
    1f42:	b249      	sxtb	r1, r1
    1f44:	32ff      	adds	r2, #255	; 0xff
    1f46:	2340      	movs	r3, #64	; 0x40
    1f48:	2900      	cmp	r1, #0
    1f4a:	dbcf      	blt.n	1eec <usb_device_endpoint_enable_callback+0x24>
    1f4c:	2320      	movs	r3, #32
    1f4e:	e7cd      	b.n	1eec <usb_device_endpoint_enable_callback+0x24>
    1f50:	00003088 	.word	0x00003088

00001f54 <usb_device_endpoint_disable_callback>:
    1f54:	230f      	movs	r3, #15
    1f56:	b570      	push	{r4, r5, r6, lr}
    1f58:	400b      	ands	r3, r1
    1f5a:	18c4      	adds	r4, r0, r3
    1f5c:	4d1f      	ldr	r5, [pc, #124]	; (1fdc <usb_device_endpoint_disable_callback+0x88>)
    1f5e:	3461      	adds	r4, #97	; 0x61
    1f60:	34ff      	adds	r4, #255	; 0xff
    1f62:	5cae      	ldrb	r6, [r5, r2]
    1f64:	7825      	ldrb	r5, [r4, #0]
    1f66:	43b5      	bics	r5, r6
    1f68:	7025      	strb	r5, [r4, #0]
    1f6a:	2a00      	cmp	r2, #0
    1f6c:	d10f      	bne.n	1f8e <usb_device_endpoint_disable_callback+0x3a>
    1f6e:	6802      	ldr	r2, [r0, #0]
    1f70:	2b00      	cmp	r3, #0
    1f72:	d103      	bne.n	1f7c <usb_device_endpoint_disable_callback+0x28>
    1f74:	32ff      	adds	r2, #255	; 0xff
    1f76:	3303      	adds	r3, #3
    1f78:	7253      	strb	r3, [r2, #9]
    1f7a:	e021      	b.n	1fc0 <usb_device_endpoint_disable_callback+0x6c>
    1f7c:	015b      	lsls	r3, r3, #5
    1f7e:	18d2      	adds	r2, r2, r3
    1f80:	b249      	sxtb	r1, r1
    1f82:	32ff      	adds	r2, #255	; 0xff
    1f84:	2302      	movs	r3, #2
    1f86:	2900      	cmp	r1, #0
    1f88:	dbf6      	blt.n	1f78 <usb_device_endpoint_disable_callback+0x24>
    1f8a:	2301      	movs	r3, #1
    1f8c:	e7f4      	b.n	1f78 <usb_device_endpoint_disable_callback+0x24>
    1f8e:	2a01      	cmp	r2, #1
    1f90:	d10e      	bne.n	1fb0 <usb_device_endpoint_disable_callback+0x5c>
    1f92:	6802      	ldr	r2, [r0, #0]
    1f94:	2b00      	cmp	r3, #0
    1f96:	d102      	bne.n	1f9e <usb_device_endpoint_disable_callback+0x4a>
    1f98:	32ff      	adds	r2, #255	; 0xff
    1f9a:	330c      	adds	r3, #12
    1f9c:	e7ec      	b.n	1f78 <usb_device_endpoint_disable_callback+0x24>
    1f9e:	015b      	lsls	r3, r3, #5
    1fa0:	18d2      	adds	r2, r2, r3
    1fa2:	b249      	sxtb	r1, r1
    1fa4:	32ff      	adds	r2, #255	; 0xff
    1fa6:	2308      	movs	r3, #8
    1fa8:	2900      	cmp	r1, #0
    1faa:	dbe5      	blt.n	1f78 <usb_device_endpoint_disable_callback+0x24>
    1fac:	2304      	movs	r3, #4
    1fae:	e7e3      	b.n	1f78 <usb_device_endpoint_disable_callback+0x24>
    1fb0:	2a02      	cmp	r2, #2
    1fb2:	d107      	bne.n	1fc4 <usb_device_endpoint_disable_callback+0x70>
    1fb4:	6802      	ldr	r2, [r0, #0]
    1fb6:	015b      	lsls	r3, r3, #5
    1fb8:	18d3      	adds	r3, r2, r3
    1fba:	2210      	movs	r2, #16
    1fbc:	33ff      	adds	r3, #255	; 0xff
    1fbe:	725a      	strb	r2, [r3, #9]
    1fc0:	2000      	movs	r0, #0
    1fc2:	bd70      	pop	{r4, r5, r6, pc}
    1fc4:	2a03      	cmp	r2, #3
    1fc6:	d1fb      	bne.n	1fc0 <usb_device_endpoint_disable_callback+0x6c>
    1fc8:	6802      	ldr	r2, [r0, #0]
    1fca:	015b      	lsls	r3, r3, #5
    1fcc:	18d2      	adds	r2, r2, r3
    1fce:	b249      	sxtb	r1, r1
    1fd0:	32ff      	adds	r2, #255	; 0xff
    1fd2:	2340      	movs	r3, #64	; 0x40
    1fd4:	2900      	cmp	r1, #0
    1fd6:	dbcf      	blt.n	1f78 <usb_device_endpoint_disable_callback+0x24>
    1fd8:	2320      	movs	r3, #32
    1fda:	e7cd      	b.n	1f78 <usb_device_endpoint_disable_callback+0x24>
    1fdc:	00003088 	.word	0x00003088

00001fe0 <usb_device_endpoint_get_config_defaults>:
    1fe0:	2300      	movs	r3, #0
    1fe2:	7003      	strb	r3, [r0, #0]
    1fe4:	7043      	strb	r3, [r0, #1]
    1fe6:	7083      	strb	r3, [r0, #2]
    1fe8:	3301      	adds	r3, #1
    1fea:	70c3      	strb	r3, [r0, #3]
    1fec:	4770      	bx	lr
	...

00001ff0 <usb_device_endpoint_set_config>:
    1ff0:	230f      	movs	r3, #15
    1ff2:	b5f0      	push	{r4, r5, r6, r7, lr}
    1ff4:	0004      	movs	r4, r0
    1ff6:	780d      	ldrb	r5, [r1, #0]
    1ff8:	78c8      	ldrb	r0, [r1, #3]
    1ffa:	402b      	ands	r3, r5
    1ffc:	b26d      	sxtb	r5, r5
    1ffe:	2804      	cmp	r0, #4
    2000:	d860      	bhi.n	20c4 <STACK_SIZE+0xc4>
    2002:	6822      	ldr	r2, [r4, #0]
    2004:	f000 fe5a 	bl	2cbc <__gnu_thumb1_case_uqi>
    2008:	87490803 	.word	0x87490803
    200c:	9d          	.byte	0x9d
    200d:	00          	.byte	0x00
    200e:	2000      	movs	r0, #0
    2010:	3308      	adds	r3, #8
    2012:	015b      	lsls	r3, r3, #5
    2014:	54d0      	strb	r0, [r2, r3]
    2016:	bdf0      	pop	{r4, r5, r6, r7, pc}
    2018:	015e      	lsls	r6, r3, #5
    201a:	1992      	adds	r2, r2, r6
    201c:	32ff      	adds	r2, #255	; 0xff
    201e:	7855      	ldrb	r5, [r2, #1]
    2020:	201c      	movs	r0, #28
    2022:	076d      	lsls	r5, r5, #29
    2024:	d1f7      	bne.n	2016 <STACK_SIZE+0x16>
    2026:	2570      	movs	r5, #112	; 0x70
    2028:	7857      	ldrb	r7, [r2, #1]
    202a:	422f      	tst	r7, r5
    202c:	d1f3      	bne.n	2016 <STACK_SIZE+0x16>
    202e:	380b      	subs	r0, #11
    2030:	7050      	strb	r0, [r2, #1]
    2032:	6822      	ldr	r2, [r4, #0]
    2034:	3308      	adds	r3, #8
    2036:	015b      	lsls	r3, r3, #5
    2038:	18d2      	adds	r2, r2, r3
    203a:	302f      	adds	r0, #47	; 0x2f
    203c:	7150      	strb	r0, [r2, #5]
    203e:	6822      	ldr	r2, [r4, #0]
    2040:	18d3      	adds	r3, r2, r3
    2042:	2280      	movs	r2, #128	; 0x80
    2044:	711a      	strb	r2, [r3, #4]
    2046:	788a      	ldrb	r2, [r1, #2]
    2048:	4b4b      	ldr	r3, [pc, #300]	; (2178 <STACK_SIZE+0x178>)
    204a:	2a00      	cmp	r2, #0
    204c:	d01b      	beq.n	2086 <STACK_SIZE+0x86>
    204e:	2080      	movs	r0, #128	; 0x80
    2050:	199a      	adds	r2, r3, r6
    2052:	6854      	ldr	r4, [r2, #4]
    2054:	0600      	lsls	r0, r0, #24
    2056:	4304      	orrs	r4, r0
    2058:	6054      	str	r4, [r2, #4]
    205a:	6954      	ldr	r4, [r2, #20]
    205c:	4320      	orrs	r0, r4
    205e:	6150      	str	r0, [r2, #20]
    2060:	2507      	movs	r5, #7
    2062:	784a      	ldrb	r2, [r1, #1]
    2064:	199b      	adds	r3, r3, r6
    2066:	6858      	ldr	r0, [r3, #4]
    2068:	4c44      	ldr	r4, [pc, #272]	; (217c <STACK_SIZE+0x17c>)
    206a:	402a      	ands	r2, r5
    206c:	0712      	lsls	r2, r2, #28
    206e:	4020      	ands	r0, r4
    2070:	4310      	orrs	r0, r2
    2072:	6058      	str	r0, [r3, #4]
    2074:	7849      	ldrb	r1, [r1, #1]
    2076:	695a      	ldr	r2, [r3, #20]
    2078:	4029      	ands	r1, r5
    207a:	0709      	lsls	r1, r1, #28
    207c:	4022      	ands	r2, r4
    207e:	430a      	orrs	r2, r1
    2080:	615a      	str	r2, [r3, #20]
    2082:	2000      	movs	r0, #0
    2084:	e7c7      	b.n	2016 <STACK_SIZE+0x16>
    2086:	1998      	adds	r0, r3, r6
    2088:	6842      	ldr	r2, [r0, #4]
    208a:	0052      	lsls	r2, r2, #1
    208c:	0852      	lsrs	r2, r2, #1
    208e:	6042      	str	r2, [r0, #4]
    2090:	6942      	ldr	r2, [r0, #20]
    2092:	0052      	lsls	r2, r2, #1
    2094:	0852      	lsrs	r2, r2, #1
    2096:	6142      	str	r2, [r0, #20]
    2098:	e7e2      	b.n	2060 <STACK_SIZE+0x60>
    209a:	0158      	lsls	r0, r3, #5
    209c:	1812      	adds	r2, r2, r0
    209e:	32ff      	adds	r2, #255	; 0xff
    20a0:	2d00      	cmp	r5, #0
    20a2:	da27      	bge.n	20f4 <STACK_SIZE+0xf4>
    20a4:	2670      	movs	r6, #112	; 0x70
    20a6:	7857      	ldrb	r7, [r2, #1]
    20a8:	201c      	movs	r0, #28
    20aa:	4237      	tst	r7, r6
    20ac:	d1b3      	bne.n	2016 <STACK_SIZE+0x16>
    20ae:	7856      	ldrb	r6, [r2, #1]
    20b0:	3004      	adds	r0, #4
    20b2:	4330      	orrs	r0, r6
    20b4:	7050      	strb	r0, [r2, #1]
    20b6:	0018      	movs	r0, r3
    20b8:	6822      	ldr	r2, [r4, #0]
    20ba:	3008      	adds	r0, #8
    20bc:	0140      	lsls	r0, r0, #5
    20be:	1812      	adds	r2, r2, r0
    20c0:	2080      	movs	r0, #128	; 0x80
    20c2:	7110      	strb	r0, [r2, #4]
    20c4:	2407      	movs	r4, #7
    20c6:	0fed      	lsrs	r5, r5, #31
    20c8:	005b      	lsls	r3, r3, #1
    20ca:	4a2b      	ldr	r2, [pc, #172]	; (2178 <STACK_SIZE+0x178>)
    20cc:	195b      	adds	r3, r3, r5
    20ce:	7848      	ldrb	r0, [r1, #1]
    20d0:	011b      	lsls	r3, r3, #4
    20d2:	18d3      	adds	r3, r2, r3
    20d4:	685a      	ldr	r2, [r3, #4]
    20d6:	4020      	ands	r0, r4
    20d8:	4c28      	ldr	r4, [pc, #160]	; (217c <STACK_SIZE+0x17c>)
    20da:	0700      	lsls	r0, r0, #28
    20dc:	4022      	ands	r2, r4
    20de:	4302      	orrs	r2, r0
    20e0:	605a      	str	r2, [r3, #4]
    20e2:	7888      	ldrb	r0, [r1, #2]
    20e4:	2800      	cmp	r0, #0
    20e6:	d042      	beq.n	216e <STACK_SIZE+0x16e>
    20e8:	2280      	movs	r2, #128	; 0x80
    20ea:	6859      	ldr	r1, [r3, #4]
    20ec:	0612      	lsls	r2, r2, #24
    20ee:	430a      	orrs	r2, r1
    20f0:	605a      	str	r2, [r3, #4]
    20f2:	e7c6      	b.n	2082 <STACK_SIZE+0x82>
    20f4:	7856      	ldrb	r6, [r2, #1]
    20f6:	201c      	movs	r0, #28
    20f8:	0776      	lsls	r6, r6, #29
    20fa:	d000      	beq.n	20fe <STACK_SIZE+0xfe>
    20fc:	e78b      	b.n	2016 <STACK_SIZE+0x16>
    20fe:	7856      	ldrb	r6, [r2, #1]
    2100:	381a      	subs	r0, #26
    2102:	4330      	orrs	r0, r6
    2104:	7050      	strb	r0, [r2, #1]
    2106:	0018      	movs	r0, r3
    2108:	6822      	ldr	r2, [r4, #0]
    210a:	3008      	adds	r0, #8
    210c:	0140      	lsls	r0, r0, #5
    210e:	1812      	adds	r2, r2, r0
    2110:	2040      	movs	r0, #64	; 0x40
    2112:	7150      	strb	r0, [r2, #5]
    2114:	e7d6      	b.n	20c4 <STACK_SIZE+0xc4>
    2116:	0158      	lsls	r0, r3, #5
    2118:	1812      	adds	r2, r2, r0
    211a:	32ff      	adds	r2, #255	; 0xff
    211c:	2d00      	cmp	r5, #0
    211e:	da08      	bge.n	2132 <STACK_SIZE+0x132>
    2120:	2670      	movs	r6, #112	; 0x70
    2122:	7857      	ldrb	r7, [r2, #1]
    2124:	201c      	movs	r0, #28
    2126:	4237      	tst	r7, r6
    2128:	d000      	beq.n	212c <STACK_SIZE+0x12c>
    212a:	e774      	b.n	2016 <STACK_SIZE+0x16>
    212c:	7856      	ldrb	r6, [r2, #1]
    212e:	3014      	adds	r0, #20
    2130:	e7bf      	b.n	20b2 <STACK_SIZE+0xb2>
    2132:	7856      	ldrb	r6, [r2, #1]
    2134:	201c      	movs	r0, #28
    2136:	0776      	lsls	r6, r6, #29
    2138:	d000      	beq.n	213c <STACK_SIZE+0x13c>
    213a:	e76c      	b.n	2016 <STACK_SIZE+0x16>
    213c:	7856      	ldrb	r6, [r2, #1]
    213e:	3819      	subs	r0, #25
    2140:	e7df      	b.n	2102 <STACK_SIZE+0x102>
    2142:	0158      	lsls	r0, r3, #5
    2144:	1812      	adds	r2, r2, r0
    2146:	32ff      	adds	r2, #255	; 0xff
    2148:	2d00      	cmp	r5, #0
    214a:	da08      	bge.n	215e <STACK_SIZE+0x15e>
    214c:	2670      	movs	r6, #112	; 0x70
    214e:	7857      	ldrb	r7, [r2, #1]
    2150:	201c      	movs	r0, #28
    2152:	4237      	tst	r7, r6
    2154:	d000      	beq.n	2158 <STACK_SIZE+0x158>
    2156:	e75e      	b.n	2016 <STACK_SIZE+0x16>
    2158:	7856      	ldrb	r6, [r2, #1]
    215a:	3024      	adds	r0, #36	; 0x24
    215c:	e7a9      	b.n	20b2 <STACK_SIZE+0xb2>
    215e:	7856      	ldrb	r6, [r2, #1]
    2160:	201c      	movs	r0, #28
    2162:	0776      	lsls	r6, r6, #29
    2164:	d000      	beq.n	2168 <STACK_SIZE+0x168>
    2166:	e756      	b.n	2016 <STACK_SIZE+0x16>
    2168:	7856      	ldrb	r6, [r2, #1]
    216a:	3818      	subs	r0, #24
    216c:	e7c9      	b.n	2102 <STACK_SIZE+0x102>
    216e:	685a      	ldr	r2, [r3, #4]
    2170:	0052      	lsls	r2, r2, #1
    2172:	0852      	lsrs	r2, r2, #1
    2174:	605a      	str	r2, [r3, #4]
    2176:	e74e      	b.n	2016 <STACK_SIZE+0x16>
    2178:	200003a8 	.word	0x200003a8
    217c:	8fffffff 	.word	0x8fffffff

00002180 <usb_device_endpoint_abort_job>:
    2180:	230f      	movs	r3, #15
    2182:	400b      	ands	r3, r1
    2184:	6802      	ldr	r2, [r0, #0]
    2186:	3308      	adds	r3, #8
    2188:	015b      	lsls	r3, r3, #5
    218a:	b249      	sxtb	r1, r1
    218c:	18d2      	adds	r2, r2, r3
    218e:	2900      	cmp	r1, #0
    2190:	da06      	bge.n	21a0 <usb_device_endpoint_abort_job+0x20>
    2192:	2180      	movs	r1, #128	; 0x80
    2194:	7111      	strb	r1, [r2, #4]
    2196:	6802      	ldr	r2, [r0, #0]
    2198:	18d3      	adds	r3, r2, r3
    219a:	2202      	movs	r2, #2
    219c:	71da      	strb	r2, [r3, #7]
    219e:	4770      	bx	lr
    21a0:	2140      	movs	r1, #64	; 0x40
    21a2:	7151      	strb	r1, [r2, #5]
    21a4:	6802      	ldr	r2, [r0, #0]
    21a6:	18d3      	adds	r3, r2, r3
    21a8:	2201      	movs	r2, #1
    21aa:	e7f7      	b.n	219c <usb_device_endpoint_abort_job+0x1c>

000021ac <usb_device_endpoint_is_halted>:
    21ac:	230f      	movs	r3, #15
    21ae:	400b      	ands	r3, r1
    21b0:	6800      	ldr	r0, [r0, #0]
    21b2:	3308      	adds	r3, #8
    21b4:	015b      	lsls	r3, r3, #5
    21b6:	18c3      	adds	r3, r0, r3
    21b8:	b249      	sxtb	r1, r1
    21ba:	7998      	ldrb	r0, [r3, #6]
    21bc:	2900      	cmp	r1, #0
    21be:	da02      	bge.n	21c6 <usb_device_endpoint_is_halted+0x1a>
    21c0:	0680      	lsls	r0, r0, #26
    21c2:	0fc0      	lsrs	r0, r0, #31
    21c4:	4770      	bx	lr
    21c6:	06c0      	lsls	r0, r0, #27
    21c8:	e7fb      	b.n	21c2 <usb_device_endpoint_is_halted+0x16>

000021ca <usb_device_endpoint_set_halt>:
    21ca:	230f      	movs	r3, #15
    21cc:	400b      	ands	r3, r1
    21ce:	6800      	ldr	r0, [r0, #0]
    21d0:	3308      	adds	r3, #8
    21d2:	015b      	lsls	r3, r3, #5
    21d4:	b249      	sxtb	r1, r1
    21d6:	18c3      	adds	r3, r0, r3
    21d8:	2220      	movs	r2, #32
    21da:	2900      	cmp	r1, #0
    21dc:	db00      	blt.n	21e0 <usb_device_endpoint_set_halt+0x16>
    21de:	2210      	movs	r2, #16
    21e0:	715a      	strb	r2, [r3, #5]
    21e2:	4770      	bx	lr

000021e4 <usb_device_endpoint_clear_halt>:
    21e4:	230f      	movs	r3, #15
    21e6:	b530      	push	{r4, r5, lr}
    21e8:	400b      	ands	r3, r1
    21ea:	6802      	ldr	r2, [r0, #0]
    21ec:	015c      	lsls	r4, r3, #5
    21ee:	1912      	adds	r2, r2, r4
    21f0:	32ff      	adds	r2, #255	; 0xff
    21f2:	b249      	sxtb	r1, r1
    21f4:	79d5      	ldrb	r5, [r2, #7]
    21f6:	2900      	cmp	r1, #0
    21f8:	da12      	bge.n	2220 <usb_device_endpoint_clear_halt+0x3c>
    21fa:	2120      	movs	r1, #32
    21fc:	420d      	tst	r5, r1
    21fe:	d00e      	beq.n	221e <usb_device_endpoint_clear_halt+0x3a>
    2200:	7151      	strb	r1, [r2, #5]
    2202:	6802      	ldr	r2, [r0, #0]
    2204:	1849      	adds	r1, r1, r1
    2206:	1912      	adds	r2, r2, r4
    2208:	32ff      	adds	r2, #255	; 0xff
    220a:	7a14      	ldrb	r4, [r2, #8]
    220c:	420c      	tst	r4, r1
    220e:	d006      	beq.n	221e <usb_device_endpoint_clear_halt+0x3a>
    2210:	7211      	strb	r1, [r2, #8]
    2212:	6802      	ldr	r2, [r0, #0]
    2214:	3308      	adds	r3, #8
    2216:	015b      	lsls	r3, r3, #5
    2218:	18d3      	adds	r3, r2, r3
    221a:	2202      	movs	r2, #2
    221c:	711a      	strb	r2, [r3, #4]
    221e:	bd30      	pop	{r4, r5, pc}
    2220:	2110      	movs	r1, #16
    2222:	420d      	tst	r5, r1
    2224:	d0fb      	beq.n	221e <usb_device_endpoint_clear_halt+0x3a>
    2226:	7151      	strb	r1, [r2, #5]
    2228:	6802      	ldr	r2, [r0, #0]
    222a:	1849      	adds	r1, r1, r1
    222c:	1912      	adds	r2, r2, r4
    222e:	32ff      	adds	r2, #255	; 0xff
    2230:	7a14      	ldrb	r4, [r2, #8]
    2232:	420c      	tst	r4, r1
    2234:	d0f3      	beq.n	221e <usb_device_endpoint_clear_halt+0x3a>
    2236:	7211      	strb	r1, [r2, #8]
    2238:	6802      	ldr	r2, [r0, #0]
    223a:	3308      	adds	r3, #8
    223c:	015b      	lsls	r3, r3, #5
    223e:	18d3      	adds	r3, r2, r3
    2240:	2201      	movs	r2, #1
    2242:	e7eb      	b.n	221c <usb_device_endpoint_clear_halt+0x38>

00002244 <usb_device_endpoint_write_buffer_job>:
    2244:	b570      	push	{r4, r5, r6, lr}
    2246:	000c      	movs	r4, r1
    2248:	6805      	ldr	r5, [r0, #0]
    224a:	3408      	adds	r4, #8
    224c:	0164      	lsls	r4, r4, #5
    224e:	5d65      	ldrb	r5, [r4, r5]
    2250:	261c      	movs	r6, #28
    2252:	066d      	lsls	r5, r5, #25
    2254:	0f6d      	lsrs	r5, r5, #29
    2256:	d014      	beq.n	2282 <usb_device_endpoint_write_buffer_job+0x3e>
    2258:	014d      	lsls	r5, r1, #5
    225a:	490b      	ldr	r1, [pc, #44]	; (2288 <usb_device_endpoint_write_buffer_job+0x44>)
    225c:	049b      	lsls	r3, r3, #18
    225e:	1949      	adds	r1, r1, r5
    2260:	000d      	movs	r5, r1
    2262:	610a      	str	r2, [r1, #16]
    2264:	694a      	ldr	r2, [r1, #20]
    2266:	4909      	ldr	r1, [pc, #36]	; (228c <usb_device_endpoint_write_buffer_job+0x48>)
    2268:	2600      	movs	r6, #0
    226a:	400a      	ands	r2, r1
    226c:	616a      	str	r2, [r5, #20]
    226e:	696a      	ldr	r2, [r5, #20]
    2270:	0c99      	lsrs	r1, r3, #18
    2272:	0b93      	lsrs	r3, r2, #14
    2274:	039b      	lsls	r3, r3, #14
    2276:	430b      	orrs	r3, r1
    2278:	616b      	str	r3, [r5, #20]
    227a:	6803      	ldr	r3, [r0, #0]
    227c:	191c      	adds	r4, r3, r4
    227e:	2380      	movs	r3, #128	; 0x80
    2280:	7163      	strb	r3, [r4, #5]
    2282:	0030      	movs	r0, r6
    2284:	bd70      	pop	{r4, r5, r6, pc}
    2286:	46c0      	nop			; (mov r8, r8)
    2288:	200003a8 	.word	0x200003a8
    228c:	f0003fff 	.word	0xf0003fff

00002290 <usb_device_endpoint_read_buffer_job>:
    2290:	b570      	push	{r4, r5, r6, lr}
    2292:	000c      	movs	r4, r1
    2294:	6805      	ldr	r5, [r0, #0]
    2296:	3408      	adds	r4, #8
    2298:	0164      	lsls	r4, r4, #5
    229a:	5d65      	ldrb	r5, [r4, r5]
    229c:	261c      	movs	r6, #28
    229e:	076d      	lsls	r5, r5, #29
    22a0:	d013      	beq.n	22ca <usb_device_endpoint_read_buffer_job+0x3a>
    22a2:	4d0b      	ldr	r5, [pc, #44]	; (22d0 <usb_device_endpoint_read_buffer_job+0x40>)
    22a4:	0149      	lsls	r1, r1, #5
    22a6:	514a      	str	r2, [r1, r5]
    22a8:	049b      	lsls	r3, r3, #18
    22aa:	1869      	adds	r1, r5, r1
    22ac:	684a      	ldr	r2, [r1, #4]
    22ae:	091d      	lsrs	r5, r3, #4
    22b0:	4b08      	ldr	r3, [pc, #32]	; (22d4 <usb_device_endpoint_read_buffer_job+0x44>)
    22b2:	2600      	movs	r6, #0
    22b4:	4013      	ands	r3, r2
    22b6:	432b      	orrs	r3, r5
    22b8:	604b      	str	r3, [r1, #4]
    22ba:	684b      	ldr	r3, [r1, #4]
    22bc:	0b9b      	lsrs	r3, r3, #14
    22be:	039b      	lsls	r3, r3, #14
    22c0:	604b      	str	r3, [r1, #4]
    22c2:	6803      	ldr	r3, [r0, #0]
    22c4:	191c      	adds	r4, r3, r4
    22c6:	2340      	movs	r3, #64	; 0x40
    22c8:	7123      	strb	r3, [r4, #4]
    22ca:	0030      	movs	r0, r6
    22cc:	bd70      	pop	{r4, r5, r6, pc}
    22ce:	46c0      	nop			; (mov r8, r8)
    22d0:	200003a8 	.word	0x200003a8
    22d4:	f0003fff 	.word	0xf0003fff

000022d8 <usb_device_endpoint_setup_buffer_job>:
    22d8:	4b09      	ldr	r3, [pc, #36]	; (2300 <usb_device_endpoint_setup_buffer_job+0x28>)
    22da:	6019      	str	r1, [r3, #0]
    22dc:	685a      	ldr	r2, [r3, #4]
    22de:	4909      	ldr	r1, [pc, #36]	; (2304 <usb_device_endpoint_setup_buffer_job+0x2c>)
    22e0:	4011      	ands	r1, r2
    22e2:	2280      	movs	r2, #128	; 0x80
    22e4:	0292      	lsls	r2, r2, #10
    22e6:	430a      	orrs	r2, r1
    22e8:	605a      	str	r2, [r3, #4]
    22ea:	685a      	ldr	r2, [r3, #4]
    22ec:	0b92      	lsrs	r2, r2, #14
    22ee:	0392      	lsls	r2, r2, #14
    22f0:	605a      	str	r2, [r3, #4]
    22f2:	2240      	movs	r2, #64	; 0x40
    22f4:	6803      	ldr	r3, [r0, #0]
    22f6:	2000      	movs	r0, #0
    22f8:	33ff      	adds	r3, #255	; 0xff
    22fa:	715a      	strb	r2, [r3, #5]
    22fc:	4770      	bx	lr
    22fe:	46c0      	nop			; (mov r8, r8)
    2300:	200003a8 	.word	0x200003a8
    2304:	f0003fff 	.word	0xf0003fff

00002308 <usb_enable>:
    2308:	2302      	movs	r3, #2
    230a:	6802      	ldr	r2, [r0, #0]
    230c:	7811      	ldrb	r1, [r2, #0]
    230e:	430b      	orrs	r3, r1
    2310:	7013      	strb	r3, [r2, #0]
    2312:	6802      	ldr	r2, [r0, #0]
    2314:	7893      	ldrb	r3, [r2, #2]
    2316:	2b02      	cmp	r3, #2
    2318:	d0fc      	beq.n	2314 <usb_enable+0xc>
    231a:	4770      	bx	lr

0000231c <USB_Handler>:
    231c:	b5f0      	push	{r4, r5, r6, r7, lr}
    231e:	4ed7      	ldr	r6, [pc, #860]	; (267c <USB_Handler+0x360>)
    2320:	b085      	sub	sp, #20
    2322:	6837      	ldr	r7, [r6, #0]
    2324:	683d      	ldr	r5, [r7, #0]
    2326:	782b      	ldrb	r3, [r5, #0]
    2328:	09db      	lsrs	r3, r3, #7
    232a:	d100      	bne.n	232e <USB_Handler+0x12>
    232c:	e122      	b.n	2574 <USB_Handler+0x258>
    232e:	8c2b      	ldrh	r3, [r5, #32]
    2330:	2b00      	cmp	r3, #0
    2332:	d100      	bne.n	2336 <USB_Handler+0x1a>
    2334:	e22d      	b.n	2792 <USB_Handler+0x476>
    2336:	8c28      	ldrh	r0, [r5, #32]
    2338:	4bd1      	ldr	r3, [pc, #836]	; (2680 <USB_Handler+0x364>)
    233a:	b280      	uxth	r0, r0
    233c:	4798      	blx	r3
    233e:	0003      	movs	r3, r0
    2340:	0004      	movs	r4, r0
    2342:	2003      	movs	r0, #3
    2344:	3308      	adds	r3, #8
    2346:	015b      	lsls	r3, r3, #5
    2348:	18ed      	adds	r5, r5, r3
    234a:	79ed      	ldrb	r5, [r5, #7]
    234c:	b2ea      	uxtb	r2, r5
    234e:	9201      	str	r2, [sp, #4]
    2350:	4202      	tst	r2, r0
    2352:	d031      	beq.n	23b8 <USB_Handler+0x9c>
    2354:	2101      	movs	r1, #1
    2356:	4acb      	ldr	r2, [pc, #812]	; (2684 <USB_Handler+0x368>)
    2358:	4694      	mov	ip, r2
    235a:	000a      	movs	r2, r1
    235c:	4665      	mov	r5, ip
    235e:	40a2      	lsls	r2, r4
    2360:	682d      	ldr	r5, [r5, #0]
    2362:	4395      	bics	r5, r2
    2364:	002a      	movs	r2, r5
    2366:	4665      	mov	r5, ip
    2368:	602a      	str	r2, [r5, #0]
    236a:	683a      	ldr	r2, [r7, #0]
    236c:	18d2      	adds	r2, r2, r3
    236e:	71d0      	strb	r0, [r2, #7]
    2370:	193a      	adds	r2, r7, r4
    2372:	32ae      	adds	r2, #174	; 0xae
    2374:	7812      	ldrb	r2, [r2, #0]
    2376:	420a      	tst	r2, r1
    2378:	d01e      	beq.n	23b8 <USB_Handler+0x9c>
    237a:	4ac3      	ldr	r2, [pc, #780]	; (2688 <USB_Handler+0x36c>)
    237c:	0160      	lsls	r0, r4, #5
    237e:	7014      	strb	r4, [r2, #0]
    2380:	6839      	ldr	r1, [r7, #0]
    2382:	5c59      	ldrb	r1, [r3, r1]
    2384:	4bc1      	ldr	r3, [pc, #772]	; (268c <USB_Handler+0x370>)
    2386:	0789      	lsls	r1, r1, #30
    2388:	0f89      	lsrs	r1, r1, #30
    238a:	181b      	adds	r3, r3, r0
    238c:	2901      	cmp	r1, #1
    238e:	d000      	beq.n	2392 <USB_Handler+0x76>
    2390:	e0b4      	b.n	24fc <USB_Handler+0x1e0>
    2392:	6859      	ldr	r1, [r3, #4]
    2394:	0489      	lsls	r1, r1, #18
    2396:	0c89      	lsrs	r1, r1, #18
    2398:	8051      	strh	r1, [r2, #2]
    239a:	6859      	ldr	r1, [r3, #4]
    239c:	0109      	lsls	r1, r1, #4
    239e:	0c89      	lsrs	r1, r1, #18
    23a0:	8091      	strh	r1, [r2, #4]
    23a2:	685a      	ldr	r2, [r3, #4]
    23a4:	0b92      	lsrs	r2, r2, #14
    23a6:	0392      	lsls	r2, r2, #14
    23a8:	605a      	str	r2, [r3, #4]
    23aa:	1ca3      	adds	r3, r4, #2
    23ac:	011b      	lsls	r3, r3, #4
    23ae:	18fb      	adds	r3, r7, r3
    23b0:	685b      	ldr	r3, [r3, #4]
    23b2:	49b5      	ldr	r1, [pc, #724]	; (2688 <USB_Handler+0x36c>)
    23b4:	0038      	movs	r0, r7
    23b6:	4798      	blx	r3
    23b8:	2304      	movs	r3, #4
    23ba:	9a01      	ldr	r2, [sp, #4]
    23bc:	421a      	tst	r2, r3
    23be:	d038      	beq.n	2432 <USB_Handler+0x116>
    23c0:	0022      	movs	r2, r4
    23c2:	4bae      	ldr	r3, [pc, #696]	; (267c <USB_Handler+0x360>)
    23c4:	3208      	adds	r2, #8
    23c6:	6818      	ldr	r0, [r3, #0]
    23c8:	0153      	lsls	r3, r2, #5
    23ca:	6801      	ldr	r1, [r0, #0]
    23cc:	469c      	mov	ip, r3
    23ce:	5c5b      	ldrb	r3, [r3, r1]
    23d0:	069b      	lsls	r3, r3, #26
    23d2:	0f5b      	lsrs	r3, r3, #29
    23d4:	9302      	str	r3, [sp, #8]
    23d6:	2b02      	cmp	r3, #2
    23d8:	d000      	beq.n	23dc <USB_Handler+0xc0>
    23da:	e0a4      	b.n	2526 <USB_Handler+0x20a>
    23dc:	4663      	mov	r3, ip
    23de:	5c5b      	ldrb	r3, [r3, r1]
    23e0:	079b      	lsls	r3, r3, #30
    23e2:	0f9b      	lsrs	r3, r3, #30
    23e4:	2b01      	cmp	r3, #1
    23e6:	d000      	beq.n	23ea <USB_Handler+0xce>
    23e8:	e09d      	b.n	2526 <USB_Handler+0x20a>
    23ea:	4fa8      	ldr	r7, [pc, #672]	; (268c <USB_Handler+0x370>)
    23ec:	0165      	lsls	r5, r4, #5
    23ee:	197d      	adds	r5, r7, r5
    23f0:	002f      	movs	r7, r5
    23f2:	9503      	str	r5, [sp, #12]
    23f4:	3708      	adds	r7, #8
    23f6:	78bf      	ldrb	r7, [r7, #2]
    23f8:	07fd      	lsls	r5, r7, #31
    23fa:	d400      	bmi.n	23fe <USB_Handler+0xe2>
    23fc:	e093      	b.n	2526 <USB_Handler+0x20a>
    23fe:	40a3      	lsls	r3, r4
    2400:	4aa0      	ldr	r2, [pc, #640]	; (2684 <USB_Handler+0x368>)
    2402:	6811      	ldr	r1, [r2, #0]
    2404:	4399      	bics	r1, r3
    2406:	2300      	movs	r3, #0
    2408:	6011      	str	r1, [r2, #0]
    240a:	9a03      	ldr	r2, [sp, #12]
    240c:	7293      	strb	r3, [r2, #10]
    240e:	2204      	movs	r2, #4
    2410:	6803      	ldr	r3, [r0, #0]
    2412:	4463      	add	r3, ip
    2414:	71da      	strb	r2, [r3, #7]
    2416:	1903      	adds	r3, r0, r4
    2418:	33ae      	adds	r3, #174	; 0xae
    241a:	781b      	ldrb	r3, [r3, #0]
    241c:	9a02      	ldr	r2, [sp, #8]
    241e:	4213      	tst	r3, r2
    2420:	d007      	beq.n	2432 <USB_Handler+0x116>
    2422:	2310      	movs	r3, #16
    2424:	4998      	ldr	r1, [pc, #608]	; (2688 <USB_Handler+0x36c>)
    2426:	704b      	strb	r3, [r1, #1]
    2428:	0123      	lsls	r3, r4, #4
    242a:	18c3      	adds	r3, r0, r3
    242c:	700c      	strb	r4, [r1, #0]
    242e:	6a9b      	ldr	r3, [r3, #40]	; 0x28
    2430:	4798      	blx	r3
    2432:	2208      	movs	r2, #8
    2434:	9b01      	ldr	r3, [sp, #4]
    2436:	4213      	tst	r3, r2
    2438:	d01d      	beq.n	2476 <USB_Handler+0x15a>
    243a:	2301      	movs	r3, #1
    243c:	40a3      	lsls	r3, r4
    243e:	4991      	ldr	r1, [pc, #580]	; (2684 <USB_Handler+0x368>)
    2440:	6808      	ldr	r0, [r1, #0]
    2442:	4398      	bics	r0, r3
    2444:	6008      	str	r0, [r1, #0]
    2446:	6830      	ldr	r0, [r6, #0]
    2448:	18a3      	adds	r3, r4, r2
    244a:	6801      	ldr	r1, [r0, #0]
    244c:	015b      	lsls	r3, r3, #5
    244e:	18cb      	adds	r3, r1, r3
    2450:	71da      	strb	r2, [r3, #7]
    2452:	1903      	adds	r3, r0, r4
    2454:	33ae      	adds	r3, #174	; 0xae
    2456:	781b      	ldrb	r3, [r3, #0]
    2458:	079b      	lsls	r3, r3, #30
    245a:	d50c      	bpl.n	2476 <USB_Handler+0x15a>
    245c:	4b8b      	ldr	r3, [pc, #556]	; (268c <USB_Handler+0x370>)
    245e:	0162      	lsls	r2, r4, #5
    2460:	189b      	adds	r3, r3, r2
    2462:	221f      	movs	r2, #31
    2464:	89db      	ldrh	r3, [r3, #14]
    2466:	4988      	ldr	r1, [pc, #544]	; (2688 <USB_Handler+0x36c>)
    2468:	4013      	ands	r3, r2
    246a:	704b      	strb	r3, [r1, #1]
    246c:	0123      	lsls	r3, r4, #4
    246e:	18c3      	adds	r3, r0, r3
    2470:	700c      	strb	r4, [r1, #0]
    2472:	6a9b      	ldr	r3, [r3, #40]	; 0x28
    2474:	4798      	blx	r3
    2476:	2210      	movs	r2, #16
    2478:	9b01      	ldr	r3, [sp, #4]
    247a:	4213      	tst	r3, r2
    247c:	d01f      	beq.n	24be <USB_Handler+0x1a2>
    247e:	2301      	movs	r3, #1
    2480:	40a3      	lsls	r3, r4
    2482:	4980      	ldr	r1, [pc, #512]	; (2684 <USB_Handler+0x368>)
    2484:	6808      	ldr	r0, [r1, #0]
    2486:	4398      	bics	r0, r3
    2488:	0023      	movs	r3, r4
    248a:	6008      	str	r0, [r1, #0]
    248c:	6830      	ldr	r0, [r6, #0]
    248e:	3308      	adds	r3, #8
    2490:	6801      	ldr	r1, [r0, #0]
    2492:	015b      	lsls	r3, r3, #5
    2494:	18cb      	adds	r3, r1, r3
    2496:	71da      	strb	r2, [r3, #7]
    2498:	1903      	adds	r3, r0, r4
    249a:	33ae      	adds	r3, #174	; 0xae
    249c:	781b      	ldrb	r3, [r3, #0]
    249e:	075b      	lsls	r3, r3, #29
    24a0:	d50d      	bpl.n	24be <USB_Handler+0x1a2>
    24a2:	4a79      	ldr	r2, [pc, #484]	; (2688 <USB_Handler+0x36c>)
    24a4:	4b79      	ldr	r3, [pc, #484]	; (268c <USB_Handler+0x370>)
    24a6:	0161      	lsls	r1, r4, #5
    24a8:	185b      	adds	r3, r3, r1
    24aa:	7014      	strb	r4, [r2, #0]
    24ac:	685b      	ldr	r3, [r3, #4]
    24ae:	2100      	movs	r1, #0
    24b0:	011b      	lsls	r3, r3, #4
    24b2:	0c9b      	lsrs	r3, r3, #18
    24b4:	8053      	strh	r3, [r2, #2]
    24b6:	0123      	lsls	r3, r4, #4
    24b8:	18c3      	adds	r3, r0, r3
    24ba:	6adb      	ldr	r3, [r3, #44]	; 0x2c
    24bc:	4798      	blx	r3
    24be:	2220      	movs	r2, #32
    24c0:	9b01      	ldr	r3, [sp, #4]
    24c2:	4213      	tst	r3, r2
    24c4:	d100      	bne.n	24c8 <USB_Handler+0x1ac>
    24c6:	e1f9      	b.n	28bc <USB_Handler+0x5a0>
    24c8:	2301      	movs	r3, #1
    24ca:	40a3      	lsls	r3, r4
    24cc:	496d      	ldr	r1, [pc, #436]	; (2684 <USB_Handler+0x368>)
    24ce:	6808      	ldr	r0, [r1, #0]
    24d0:	4398      	bics	r0, r3
    24d2:	0023      	movs	r3, r4
    24d4:	6008      	str	r0, [r1, #0]
    24d6:	6830      	ldr	r0, [r6, #0]
    24d8:	3308      	adds	r3, #8
    24da:	6801      	ldr	r1, [r0, #0]
    24dc:	015b      	lsls	r3, r3, #5
    24de:	18cb      	adds	r3, r1, r3
    24e0:	71da      	strb	r2, [r3, #7]
    24e2:	1903      	adds	r3, r0, r4
    24e4:	33ae      	adds	r3, #174	; 0xae
    24e6:	781b      	ldrb	r3, [r3, #0]
    24e8:	071b      	lsls	r3, r3, #28
    24ea:	d400      	bmi.n	24ee <USB_Handler+0x1d2>
    24ec:	e1e6      	b.n	28bc <USB_Handler+0x5a0>
    24ee:	4966      	ldr	r1, [pc, #408]	; (2688 <USB_Handler+0x36c>)
    24f0:	700c      	strb	r4, [r1, #0]
    24f2:	0124      	lsls	r4, r4, #4
    24f4:	1904      	adds	r4, r0, r4
    24f6:	6b23      	ldr	r3, [r4, #48]	; 0x30
    24f8:	4798      	blx	r3
    24fa:	e1df      	b.n	28bc <USB_Handler+0x5a0>
    24fc:	6859      	ldr	r1, [r3, #4]
    24fe:	4d64      	ldr	r5, [pc, #400]	; (2690 <USB_Handler+0x374>)
    2500:	0109      	lsls	r1, r1, #4
    2502:	0c89      	lsrs	r1, r1, #18
    2504:	8051      	strh	r1, [r2, #2]
    2506:	b288      	uxth	r0, r1
    2508:	6859      	ldr	r1, [r3, #4]
    250a:	0489      	lsls	r1, r1, #18
    250c:	0c89      	lsrs	r1, r1, #18
    250e:	8091      	strh	r1, [r2, #4]
    2510:	6859      	ldr	r1, [r3, #4]
    2512:	4029      	ands	r1, r5
    2514:	6059      	str	r1, [r3, #4]
    2516:	2800      	cmp	r0, #0
    2518:	d000      	beq.n	251c <USB_Handler+0x200>
    251a:	e746      	b.n	23aa <USB_Handler+0x8e>
    251c:	685b      	ldr	r3, [r3, #4]
    251e:	049b      	lsls	r3, r3, #18
    2520:	0c9b      	lsrs	r3, r3, #18
    2522:	8053      	strh	r3, [r2, #2]
    2524:	e741      	b.n	23aa <USB_Handler+0x8e>
    2526:	0152      	lsls	r2, r2, #5
    2528:	5c53      	ldrb	r3, [r2, r1]
    252a:	4d58      	ldr	r5, [pc, #352]	; (268c <USB_Handler+0x370>)
    252c:	069b      	lsls	r3, r3, #26
    252e:	0f5b      	lsrs	r3, r3, #29
    2530:	46ac      	mov	ip, r5
    2532:	0167      	lsls	r7, r4, #5
    2534:	2b03      	cmp	r3, #3
    2536:	d111      	bne.n	255c <USB_Handler+0x240>
    2538:	5c53      	ldrb	r3, [r2, r1]
    253a:	079b      	lsls	r3, r3, #30
    253c:	0f9b      	lsrs	r3, r3, #30
    253e:	2b01      	cmp	r3, #1
    2540:	d10c      	bne.n	255c <USB_Handler+0x240>
    2542:	0039      	movs	r1, r7
    2544:	2300      	movs	r3, #0
    2546:	4461      	add	r1, ip
    2548:	728b      	strb	r3, [r1, #10]
    254a:	2104      	movs	r1, #4
    254c:	6803      	ldr	r3, [r0, #0]
    254e:	189b      	adds	r3, r3, r2
    2550:	71d9      	strb	r1, [r3, #7]
    2552:	6803      	ldr	r3, [r0, #0]
    2554:	189a      	adds	r2, r3, r2
    2556:	2310      	movs	r3, #16
    2558:	7153      	strb	r3, [r2, #5]
    255a:	e76a      	b.n	2432 <USB_Handler+0x116>
    255c:	003a      	movs	r2, r7
    255e:	2300      	movs	r3, #0
    2560:	4462      	add	r2, ip
    2562:	7293      	strb	r3, [r2, #10]
    2564:	0022      	movs	r2, r4
    2566:	6803      	ldr	r3, [r0, #0]
    2568:	3208      	adds	r2, #8
    256a:	0152      	lsls	r2, r2, #5
    256c:	189b      	adds	r3, r3, r2
    256e:	2204      	movs	r2, #4
    2570:	71da      	strb	r2, [r3, #7]
    2572:	e75e      	b.n	2432 <USB_Handler+0x116>
    2574:	8c2c      	ldrh	r4, [r5, #32]
    2576:	b2a2      	uxth	r2, r4
    2578:	9201      	str	r2, [sp, #4]
    257a:	2a00      	cmp	r2, #0
    257c:	d12c      	bne.n	25d8 <USB_Handler+0x2bc>
    257e:	8bab      	ldrh	r3, [r5, #28]
    2580:	3255      	adds	r2, #85	; 0x55
    2582:	b29b      	uxth	r3, r3
    2584:	9302      	str	r3, [sp, #8]
    2586:	23ab      	movs	r3, #171	; 0xab
    2588:	32ff      	adds	r2, #255	; 0xff
    258a:	005b      	lsls	r3, r3, #1
    258c:	5afb      	ldrh	r3, [r7, r3]
    258e:	5abd      	ldrh	r5, [r7, r2]
    2590:	2780      	movs	r7, #128	; 0x80
    2592:	401d      	ands	r5, r3
    2594:	9b02      	ldr	r3, [sp, #8]
    2596:	9c01      	ldr	r4, [sp, #4]
    2598:	401d      	ands	r5, r3
    259a:	007f      	lsls	r7, r7, #1
    259c:	4b3d      	ldr	r3, [pc, #244]	; (2694 <USB_Handler+0x378>)
    259e:	0062      	lsls	r2, r4, #1
    25a0:	5ad3      	ldrh	r3, [r2, r3]
    25a2:	9a02      	ldr	r2, [sp, #8]
    25a4:	4213      	tst	r3, r2
    25a6:	d002      	beq.n	25ae <USB_Handler+0x292>
    25a8:	6832      	ldr	r2, [r6, #0]
    25aa:	6812      	ldr	r2, [r2, #0]
    25ac:	8393      	strh	r3, [r2, #28]
    25ae:	422b      	tst	r3, r5
    25b0:	d00e      	beq.n	25d0 <USB_Handler+0x2b4>
    25b2:	4939      	ldr	r1, [pc, #228]	; (2698 <USB_Handler+0x37c>)
    25b4:	2c06      	cmp	r4, #6
    25b6:	d104      	bne.n	25c2 <USB_Handler+0x2a6>
    25b8:	4b34      	ldr	r3, [pc, #208]	; (268c <USB_Handler+0x370>)
    25ba:	891b      	ldrh	r3, [r3, #8]
    25bc:	091b      	lsrs	r3, r3, #4
    25be:	403b      	ands	r3, r7
    25c0:	600b      	str	r3, [r1, #0]
    25c2:	0023      	movs	r3, r4
    25c4:	6832      	ldr	r2, [r6, #0]
    25c6:	332e      	adds	r3, #46	; 0x2e
    25c8:	009b      	lsls	r3, r3, #2
    25ca:	589b      	ldr	r3, [r3, r2]
    25cc:	0010      	movs	r0, r2
    25ce:	4798      	blx	r3
    25d0:	3401      	adds	r4, #1
    25d2:	2c07      	cmp	r4, #7
    25d4:	d1e2      	bne.n	259c <USB_Handler+0x280>
    25d6:	e171      	b.n	28bc <USB_Handler+0x5a0>
    25d8:	003e      	movs	r6, r7
    25da:	3659      	adds	r6, #89	; 0x59
    25dc:	36ff      	adds	r6, #255	; 0xff
    25de:	9a01      	ldr	r2, [sp, #4]
    25e0:	2101      	movs	r1, #1
    25e2:	411a      	asrs	r2, r3
    25e4:	b2dc      	uxtb	r4, r3
    25e6:	420a      	tst	r2, r1
    25e8:	d100      	bne.n	25ec <USB_Handler+0x2d0>
    25ea:	e0cc      	b.n	2786 <USB_Handler+0x46a>
    25ec:	001a      	movs	r2, r3
    25ee:	3208      	adds	r2, #8
    25f0:	0151      	lsls	r1, r2, #5
    25f2:	1869      	adds	r1, r5, r1
    25f4:	1dc8      	adds	r0, r1, #7
    25f6:	9003      	str	r0, [sp, #12]
    25f8:	79c8      	ldrb	r0, [r1, #7]
    25fa:	7a31      	ldrb	r1, [r6, #8]
    25fc:	9202      	str	r2, [sp, #8]
    25fe:	b2c0      	uxtb	r0, r0
    2600:	7832      	ldrb	r2, [r6, #0]
    2602:	4001      	ands	r1, r0
    2604:	4011      	ands	r1, r2
    2606:	2260      	movs	r2, #96	; 0x60
    2608:	4210      	tst	r0, r2
    260a:	d01a      	beq.n	2642 <USB_Handler+0x326>
    260c:	015a      	lsls	r2, r3, #5
    260e:	18ad      	adds	r5, r5, r2
    2610:	2240      	movs	r2, #64	; 0x40
    2612:	35ff      	adds	r5, #255	; 0xff
    2614:	7a28      	ldrb	r0, [r5, #8]
    2616:	4210      	tst	r0, r2
    2618:	d00d      	beq.n	2636 <USB_Handler+0x31a>
    261a:	722a      	strb	r2, [r5, #8]
    261c:	3ac0      	subs	r2, #192	; 0xc0
    261e:	4314      	orrs	r4, r2
    2620:	4a1e      	ldr	r2, [pc, #120]	; (269c <USB_Handler+0x380>)
    2622:	7194      	strb	r4, [r2, #6]
    2624:	2260      	movs	r2, #96	; 0x60
    2626:	4211      	tst	r1, r2
    2628:	d100      	bne.n	262c <USB_Handler+0x310>
    262a:	e147      	b.n	28bc <USB_Handler+0x5a0>
    262c:	011b      	lsls	r3, r3, #4
    262e:	18fb      	adds	r3, r7, r3
    2630:	33e0      	adds	r3, #224	; 0xe0
    2632:	681b      	ldr	r3, [r3, #0]
    2634:	e052      	b.n	26dc <USB_Handler+0x3c0>
    2636:	2220      	movs	r2, #32
    2638:	7a28      	ldrb	r0, [r5, #8]
    263a:	4210      	tst	r0, r2
    263c:	d0f2      	beq.n	2624 <USB_Handler+0x308>
    263e:	722a      	strb	r2, [r5, #8]
    2640:	e7ee      	b.n	2620 <USB_Handler+0x304>
    2642:	2210      	movs	r2, #16
    2644:	4210      	tst	r0, r2
    2646:	d02b      	beq.n	26a0 <USB_Handler+0x384>
    2648:	2110      	movs	r1, #16
    264a:	9a03      	ldr	r2, [sp, #12]
    264c:	7011      	strb	r1, [r2, #0]
    264e:	2110      	movs	r1, #16
    2650:	18fa      	adds	r2, r7, r3
    2652:	3261      	adds	r2, #97	; 0x61
    2654:	32ff      	adds	r2, #255	; 0xff
    2656:	7812      	ldrb	r2, [r2, #0]
    2658:	420a      	tst	r2, r1
    265a:	d100      	bne.n	265e <USB_Handler+0x342>
    265c:	e12e      	b.n	28bc <USB_Handler+0x5a0>
    265e:	4a0b      	ldr	r2, [pc, #44]	; (268c <USB_Handler+0x370>)
    2660:	0159      	lsls	r1, r3, #5
    2662:	1852      	adds	r2, r2, r1
    2664:	6852      	ldr	r2, [r2, #4]
    2666:	011b      	lsls	r3, r3, #4
    2668:	18fb      	adds	r3, r7, r3
    266a:	0492      	lsls	r2, r2, #18
    266c:	490b      	ldr	r1, [pc, #44]	; (269c <USB_Handler+0x380>)
    266e:	33dc      	adds	r3, #220	; 0xdc
    2670:	0c92      	lsrs	r2, r2, #18
    2672:	681b      	ldr	r3, [r3, #0]
    2674:	800a      	strh	r2, [r1, #0]
    2676:	0038      	movs	r0, r7
    2678:	e73e      	b.n	24f8 <USB_Handler+0x1dc>
    267a:	46c0      	nop			; (mov r8, r8)
    267c:	20000180 	.word	0x20000180
    2680:	00002fd1 	.word	0x00002fd1
    2684:	20000190 	.word	0x20000190
    2688:	20000194 	.word	0x20000194
    268c:	200003a8 	.word	0x200003a8
    2690:	f0003fff 	.word	0xf0003fff
    2694:	0000307a 	.word	0x0000307a
    2698:	20000184 	.word	0x20000184
    269c:	20000188 	.word	0x20000188
    26a0:	2203      	movs	r2, #3
    26a2:	4210      	tst	r0, r2
    26a4:	d02e      	beq.n	2704 <USB_Handler+0x3e8>
    26a6:	2002      	movs	r0, #2
    26a8:	015a      	lsls	r2, r3, #5
    26aa:	18ad      	adds	r5, r5, r2
    26ac:	35ff      	adds	r5, #255	; 0xff
    26ae:	7a2e      	ldrb	r6, [r5, #8]
    26b0:	4206      	tst	r6, r0
    26b2:	d015      	beq.n	26e0 <USB_Handler+0x3c4>
    26b4:	7228      	strb	r0, [r5, #8]
    26b6:	2580      	movs	r5, #128	; 0x80
    26b8:	4881      	ldr	r0, [pc, #516]	; (28c0 <USB_Handler+0x5a4>)
    26ba:	426d      	negs	r5, r5
    26bc:	432c      	orrs	r4, r5
    26be:	7184      	strb	r4, [r0, #6]
    26c0:	4c80      	ldr	r4, [pc, #512]	; (28c4 <USB_Handler+0x5a8>)
    26c2:	18a2      	adds	r2, r4, r2
    26c4:	3210      	adds	r2, #16
    26c6:	6852      	ldr	r2, [r2, #4]
    26c8:	0492      	lsls	r2, r2, #18
    26ca:	0c92      	lsrs	r2, r2, #18
    26cc:	8042      	strh	r2, [r0, #2]
    26ce:	078a      	lsls	r2, r1, #30
    26d0:	d100      	bne.n	26d4 <USB_Handler+0x3b8>
    26d2:	e0f3      	b.n	28bc <USB_Handler+0x5a0>
    26d4:	330d      	adds	r3, #13
    26d6:	011b      	lsls	r3, r3, #4
    26d8:	18fb      	adds	r3, r7, r3
    26da:	685b      	ldr	r3, [r3, #4]
    26dc:	4978      	ldr	r1, [pc, #480]	; (28c0 <USB_Handler+0x5a4>)
    26de:	e7ca      	b.n	2676 <USB_Handler+0x35a>
    26e0:	2601      	movs	r6, #1
    26e2:	7a28      	ldrb	r0, [r5, #8]
    26e4:	4230      	tst	r0, r6
    26e6:	d0f2      	beq.n	26ce <USB_Handler+0x3b2>
    26e8:	4875      	ldr	r0, [pc, #468]	; (28c0 <USB_Handler+0x5a4>)
    26ea:	722e      	strb	r6, [r5, #8]
    26ec:	7184      	strb	r4, [r0, #6]
    26ee:	4c75      	ldr	r4, [pc, #468]	; (28c4 <USB_Handler+0x5a8>)
    26f0:	18a4      	adds	r4, r4, r2
    26f2:	6862      	ldr	r2, [r4, #4]
    26f4:	0492      	lsls	r2, r2, #18
    26f6:	0c92      	lsrs	r2, r2, #18
    26f8:	8002      	strh	r2, [r0, #0]
    26fa:	6862      	ldr	r2, [r4, #4]
    26fc:	0112      	lsls	r2, r2, #4
    26fe:	0c92      	lsrs	r2, r2, #18
    2700:	8082      	strh	r2, [r0, #4]
    2702:	e7e4      	b.n	26ce <USB_Handler+0x3b2>
    2704:	220c      	movs	r2, #12
    2706:	4210      	tst	r0, r2
    2708:	d03d      	beq.n	2786 <USB_Handler+0x46a>
    270a:	2008      	movs	r0, #8
    270c:	015e      	lsls	r6, r3, #5
    270e:	19ad      	adds	r5, r5, r6
    2710:	35ff      	adds	r5, #255	; 0xff
    2712:	7a2a      	ldrb	r2, [r5, #8]
    2714:	4202      	tst	r2, r0
    2716:	d01e      	beq.n	2756 <USB_Handler+0x43a>
    2718:	7228      	strb	r0, [r5, #8]
    271a:	486a      	ldr	r0, [pc, #424]	; (28c4 <USB_Handler+0x5a8>)
    271c:	1980      	adds	r0, r0, r6
    271e:	2602      	movs	r6, #2
    2720:	7e85      	ldrb	r5, [r0, #26]
    2722:	4235      	tst	r5, r6
    2724:	d002      	beq.n	272c <USB_Handler+0x410>
    2726:	7e85      	ldrb	r5, [r0, #26]
    2728:	43b5      	bics	r5, r6
    272a:	7685      	strb	r5, [r0, #26]
    272c:	2080      	movs	r0, #128	; 0x80
    272e:	4240      	negs	r0, r0
    2730:	4304      	orrs	r4, r0
    2732:	4863      	ldr	r0, [pc, #396]	; (28c0 <USB_Handler+0x5a4>)
    2734:	9a02      	ldr	r2, [sp, #8]
    2736:	7184      	strb	r4, [r0, #6]
    2738:	6838      	ldr	r0, [r7, #0]
    273a:	0152      	lsls	r2, r2, #5
    273c:	1882      	adds	r2, r0, r2
    273e:	79d2      	ldrb	r2, [r2, #7]
    2740:	0792      	lsls	r2, r2, #30
    2742:	d500      	bpl.n	2746 <USB_Handler+0x42a>
    2744:	e0ba      	b.n	28bc <USB_Handler+0x5a0>
    2746:	220c      	movs	r2, #12
    2748:	4211      	tst	r1, r2
    274a:	d100      	bne.n	274e <USB_Handler+0x432>
    274c:	e0b6      	b.n	28bc <USB_Handler+0x5a0>
    274e:	011b      	lsls	r3, r3, #4
    2750:	18fb      	adds	r3, r7, r3
    2752:	33d8      	adds	r3, #216	; 0xd8
    2754:	e76d      	b.n	2632 <USB_Handler+0x316>
    2756:	2004      	movs	r0, #4
    2758:	7a2a      	ldrb	r2, [r5, #8]
    275a:	4202      	tst	r2, r0
    275c:	d0f3      	beq.n	2746 <USB_Handler+0x42a>
    275e:	7228      	strb	r0, [r5, #8]
    2760:	4858      	ldr	r0, [pc, #352]	; (28c4 <USB_Handler+0x5a8>)
    2762:	1980      	adds	r0, r0, r6
    2764:	2602      	movs	r6, #2
    2766:	7a85      	ldrb	r5, [r0, #10]
    2768:	4235      	tst	r5, r6
    276a:	d002      	beq.n	2772 <USB_Handler+0x456>
    276c:	7a85      	ldrb	r5, [r0, #10]
    276e:	43b5      	bics	r5, r6
    2770:	7285      	strb	r5, [r0, #10]
    2772:	4853      	ldr	r0, [pc, #332]	; (28c0 <USB_Handler+0x5a4>)
    2774:	9a02      	ldr	r2, [sp, #8]
    2776:	7184      	strb	r4, [r0, #6]
    2778:	6838      	ldr	r0, [r7, #0]
    277a:	0152      	lsls	r2, r2, #5
    277c:	1882      	adds	r2, r0, r2
    277e:	79d2      	ldrb	r2, [r2, #7]
    2780:	07d2      	lsls	r2, r2, #31
    2782:	d5e0      	bpl.n	2746 <USB_Handler+0x42a>
    2784:	e09a      	b.n	28bc <USB_Handler+0x5a0>
    2786:	3301      	adds	r3, #1
    2788:	3601      	adds	r6, #1
    278a:	2b08      	cmp	r3, #8
    278c:	d000      	beq.n	2790 <USB_Handler+0x474>
    278e:	e726      	b.n	25de <USB_Handler+0x2c2>
    2790:	e094      	b.n	28bc <USB_Handler+0x5a0>
    2792:	2304      	movs	r3, #4
    2794:	8bac      	ldrh	r4, [r5, #28]
    2796:	b2a4      	uxth	r4, r4
    2798:	421c      	tst	r4, r3
    279a:	d026      	beq.n	27ea <USB_Handler+0x4ce>
    279c:	83ab      	strh	r3, [r5, #28]
    279e:	4b4a      	ldr	r3, [pc, #296]	; (28c8 <USB_Handler+0x5ac>)
    27a0:	681b      	ldr	r3, [r3, #0]
    27a2:	469c      	mov	ip, r3
    27a4:	2301      	movs	r3, #1
    27a6:	001d      	movs	r5, r3
    27a8:	002a      	movs	r2, r5
    27aa:	4661      	mov	r1, ip
    27ac:	409a      	lsls	r2, r3
    27ae:	4211      	tst	r1, r2
    27b0:	d010      	beq.n	27d4 <USB_Handler+0x4b8>
    27b2:	0019      	movs	r1, r3
    27b4:	683a      	ldr	r2, [r7, #0]
    27b6:	3108      	adds	r1, #8
    27b8:	0149      	lsls	r1, r1, #5
    27ba:	5c88      	ldrb	r0, [r1, r2]
    27bc:	0680      	lsls	r0, r0, #26
    27be:	0f40      	lsrs	r0, r0, #29
    27c0:	2803      	cmp	r0, #3
    27c2:	d107      	bne.n	27d4 <USB_Handler+0x4b8>
    27c4:	5c88      	ldrb	r0, [r1, r2]
    27c6:	0780      	lsls	r0, r0, #30
    27c8:	0f80      	lsrs	r0, r0, #30
    27ca:	2801      	cmp	r0, #1
    27cc:	d102      	bne.n	27d4 <USB_Handler+0x4b8>
    27ce:	1852      	adds	r2, r2, r1
    27d0:	2110      	movs	r1, #16
    27d2:	7111      	strb	r1, [r2, #4]
    27d4:	3301      	adds	r3, #1
    27d6:	2b08      	cmp	r3, #8
    27d8:	d1e6      	bne.n	27a8 <USB_Handler+0x48c>
    27da:	003b      	movs	r3, r7
    27dc:	33a5      	adds	r3, #165	; 0xa5
    27de:	781b      	ldrb	r3, [r3, #0]
    27e0:	07db      	lsls	r3, r3, #31
    27e2:	d502      	bpl.n	27ea <USB_Handler+0x4ce>
    27e4:	687b      	ldr	r3, [r7, #4]
    27e6:	0038      	movs	r0, r7
    27e8:	4798      	blx	r3
    27ea:	2308      	movs	r3, #8
    27ec:	421c      	tst	r4, r3
    27ee:	d00c      	beq.n	280a <USB_Handler+0x4ee>
    27f0:	2100      	movs	r1, #0
    27f2:	4a35      	ldr	r2, [pc, #212]	; (28c8 <USB_Handler+0x5ac>)
    27f4:	6830      	ldr	r0, [r6, #0]
    27f6:	6011      	str	r1, [r2, #0]
    27f8:	6802      	ldr	r2, [r0, #0]
    27fa:	8393      	strh	r3, [r2, #28]
    27fc:	0003      	movs	r3, r0
    27fe:	33a5      	adds	r3, #165	; 0xa5
    2800:	781b      	ldrb	r3, [r3, #0]
    2802:	079b      	lsls	r3, r3, #30
    2804:	d501      	bpl.n	280a <USB_Handler+0x4ee>
    2806:	6883      	ldr	r3, [r0, #8]
    2808:	4798      	blx	r3
    280a:	2340      	movs	r3, #64	; 0x40
    280c:	421c      	tst	r4, r3
    280e:	d009      	beq.n	2824 <USB_Handler+0x508>
    2810:	6830      	ldr	r0, [r6, #0]
    2812:	6802      	ldr	r2, [r0, #0]
    2814:	8393      	strh	r3, [r2, #28]
    2816:	0003      	movs	r3, r0
    2818:	33a5      	adds	r3, #165	; 0xa5
    281a:	781b      	ldrb	r3, [r3, #0]
    281c:	06db      	lsls	r3, r3, #27
    281e:	d501      	bpl.n	2824 <USB_Handler+0x508>
    2820:	6943      	ldr	r3, [r0, #20]
    2822:	4798      	blx	r3
    2824:	2320      	movs	r3, #32
    2826:	421c      	tst	r4, r3
    2828:	d009      	beq.n	283e <USB_Handler+0x522>
    282a:	6830      	ldr	r0, [r6, #0]
    282c:	6802      	ldr	r2, [r0, #0]
    282e:	8393      	strh	r3, [r2, #28]
    2830:	0003      	movs	r3, r0
    2832:	33a5      	adds	r3, #165	; 0xa5
    2834:	781b      	ldrb	r3, [r3, #0]
    2836:	071b      	lsls	r3, r3, #28
    2838:	d501      	bpl.n	283e <USB_Handler+0x522>
    283a:	6903      	ldr	r3, [r0, #16]
    283c:	4798      	blx	r3
    283e:	2310      	movs	r3, #16
    2840:	421c      	tst	r4, r3
    2842:	d009      	beq.n	2858 <USB_Handler+0x53c>
    2844:	6830      	ldr	r0, [r6, #0]
    2846:	6802      	ldr	r2, [r0, #0]
    2848:	8393      	strh	r3, [r2, #28]
    284a:	0003      	movs	r3, r0
    284c:	33a5      	adds	r3, #165	; 0xa5
    284e:	781b      	ldrb	r3, [r3, #0]
    2850:	075b      	lsls	r3, r3, #29
    2852:	d501      	bpl.n	2858 <USB_Handler+0x53c>
    2854:	68c3      	ldr	r3, [r0, #12]
    2856:	4798      	blx	r3
    2858:	2380      	movs	r3, #128	; 0x80
    285a:	421c      	tst	r4, r3
    285c:	d00c      	beq.n	2878 <USB_Handler+0x55c>
    285e:	2100      	movs	r1, #0
    2860:	4a19      	ldr	r2, [pc, #100]	; (28c8 <USB_Handler+0x5ac>)
    2862:	6830      	ldr	r0, [r6, #0]
    2864:	6011      	str	r1, [r2, #0]
    2866:	6802      	ldr	r2, [r0, #0]
    2868:	8393      	strh	r3, [r2, #28]
    286a:	0003      	movs	r3, r0
    286c:	33a5      	adds	r3, #165	; 0xa5
    286e:	781b      	ldrb	r3, [r3, #0]
    2870:	069b      	lsls	r3, r3, #26
    2872:	d501      	bpl.n	2878 <USB_Handler+0x55c>
    2874:	6983      	ldr	r3, [r0, #24]
    2876:	4798      	blx	r3
    2878:	2380      	movs	r3, #128	; 0x80
    287a:	005b      	lsls	r3, r3, #1
    287c:	421c      	tst	r4, r3
    287e:	d00c      	beq.n	289a <USB_Handler+0x57e>
    2880:	2100      	movs	r1, #0
    2882:	4a11      	ldr	r2, [pc, #68]	; (28c8 <USB_Handler+0x5ac>)
    2884:	6830      	ldr	r0, [r6, #0]
    2886:	6011      	str	r1, [r2, #0]
    2888:	6802      	ldr	r2, [r0, #0]
    288a:	8393      	strh	r3, [r2, #28]
    288c:	0003      	movs	r3, r0
    288e:	33a5      	adds	r3, #165	; 0xa5
    2890:	781b      	ldrb	r3, [r3, #0]
    2892:	065b      	lsls	r3, r3, #25
    2894:	d501      	bpl.n	289a <USB_Handler+0x57e>
    2896:	69c3      	ldr	r3, [r0, #28]
    2898:	4798      	blx	r3
    289a:	2380      	movs	r3, #128	; 0x80
    289c:	009b      	lsls	r3, r3, #2
    289e:	421c      	tst	r4, r3
    28a0:	d00c      	beq.n	28bc <USB_Handler+0x5a0>
    28a2:	2100      	movs	r1, #0
    28a4:	4a08      	ldr	r2, [pc, #32]	; (28c8 <USB_Handler+0x5ac>)
    28a6:	6830      	ldr	r0, [r6, #0]
    28a8:	6011      	str	r1, [r2, #0]
    28aa:	6802      	ldr	r2, [r0, #0]
    28ac:	8393      	strh	r3, [r2, #28]
    28ae:	0003      	movs	r3, r0
    28b0:	33a5      	adds	r3, #165	; 0xa5
    28b2:	781b      	ldrb	r3, [r3, #0]
    28b4:	2b7f      	cmp	r3, #127	; 0x7f
    28b6:	d901      	bls.n	28bc <USB_Handler+0x5a0>
    28b8:	6a03      	ldr	r3, [r0, #32]
    28ba:	4798      	blx	r3
    28bc:	b005      	add	sp, #20
    28be:	bdf0      	pop	{r4, r5, r6, r7, pc}
    28c0:	20000188 	.word	0x20000188
    28c4:	200003a8 	.word	0x200003a8
    28c8:	20000190 	.word	0x20000190

000028cc <usb_get_config_defaults>:
    28cc:	2200      	movs	r2, #0
    28ce:	2301      	movs	r3, #1
    28d0:	7002      	strb	r2, [r0, #0]
    28d2:	7043      	strb	r3, [r0, #1]
    28d4:	7082      	strb	r2, [r0, #2]
    28d6:	70c3      	strb	r3, [r0, #3]
    28d8:	4770      	bx	lr
	...

000028dc <usb_init>:
    28dc:	2300      	movs	r3, #0
    28de:	b5f7      	push	{r0, r1, r2, r4, r5, r6, r7, lr}
    28e0:	0004      	movs	r4, r0
    28e2:	0017      	movs	r7, r2
    28e4:	4a69      	ldr	r2, [pc, #420]	; (2a8c <usb_init+0x1b0>)
    28e6:	000d      	movs	r5, r1
    28e8:	6013      	str	r3, [r2, #0]
    28ea:	4a69      	ldr	r2, [pc, #420]	; (2a90 <usb_init+0x1b4>)
    28ec:	6021      	str	r1, [r4, #0]
    28ee:	6010      	str	r0, [r2, #0]
    28f0:	2220      	movs	r2, #32
    28f2:	4968      	ldr	r1, [pc, #416]	; (2a94 <usb_init+0x1b8>)
    28f4:	ae01      	add	r6, sp, #4
    28f6:	69c8      	ldr	r0, [r1, #28]
    28f8:	4302      	orrs	r2, r0
    28fa:	61ca      	str	r2, [r1, #28]
    28fc:	2201      	movs	r2, #1
    28fe:	7073      	strb	r3, [r6, #1]
    2900:	70f3      	strb	r3, [r6, #3]
    2902:	3306      	adds	r3, #6
    2904:	7033      	strb	r3, [r6, #0]
    2906:	0031      	movs	r1, r6
    2908:	2018      	movs	r0, #24
    290a:	4b63      	ldr	r3, [pc, #396]	; (2a98 <usb_init+0x1bc>)
    290c:	70b2      	strb	r2, [r6, #2]
    290e:	4798      	blx	r3
    2910:	2306      	movs	r3, #6
    2912:	0031      	movs	r1, r6
    2914:	7033      	strb	r3, [r6, #0]
    2916:	2019      	movs	r0, #25
    2918:	4b5f      	ldr	r3, [pc, #380]	; (2a98 <usb_init+0x1bc>)
    291a:	4798      	blx	r3
    291c:	466a      	mov	r2, sp
    291e:	78bb      	ldrb	r3, [r7, #2]
    2920:	4669      	mov	r1, sp
    2922:	7013      	strb	r3, [r2, #0]
    2924:	2006      	movs	r0, #6
    2926:	4b5d      	ldr	r3, [pc, #372]	; (2a9c <usb_init+0x1c0>)
    2928:	4798      	blx	r3
    292a:	4b5d      	ldr	r3, [pc, #372]	; (2aa0 <usb_init+0x1c4>)
    292c:	2006      	movs	r0, #6
    292e:	4798      	blx	r3
    2930:	2201      	movs	r2, #1
    2932:	782b      	ldrb	r3, [r5, #0]
    2934:	4313      	orrs	r3, r2
    2936:	702b      	strb	r3, [r5, #0]
    2938:	78ab      	ldrb	r3, [r5, #2]
    293a:	07db      	lsls	r3, r3, #31
    293c:	d4fc      	bmi.n	2938 <usb_init+0x5c>
    293e:	2103      	movs	r1, #3
    2940:	4b58      	ldr	r3, [pc, #352]	; (2aa4 <usb_init+0x1c8>)
    2942:	78da      	ldrb	r2, [r3, #3]
    2944:	438a      	bics	r2, r1
    2946:	0011      	movs	r1, r2
    2948:	2202      	movs	r2, #2
    294a:	430a      	orrs	r2, r1
    294c:	210c      	movs	r1, #12
    294e:	70da      	strb	r2, [r3, #3]
    2950:	78da      	ldrb	r2, [r3, #3]
    2952:	438a      	bics	r2, r1
    2954:	0011      	movs	r1, r2
    2956:	2208      	movs	r2, #8
    2958:	430a      	orrs	r2, r1
    295a:	211f      	movs	r1, #31
    295c:	70da      	strb	r2, [r3, #3]
    295e:	4a52      	ldr	r2, [pc, #328]	; (2aa8 <usb_init+0x1cc>)
    2960:	6813      	ldr	r3, [r2, #0]
    2962:	0b5b      	lsrs	r3, r3, #13
    2964:	400b      	ands	r3, r1
    2966:	428b      	cmp	r3, r1
    2968:	d100      	bne.n	296c <usb_init+0x90>
    296a:	2305      	movs	r3, #5
    296c:	8d28      	ldrh	r0, [r5, #40]	; 0x28
    296e:	4e4f      	ldr	r6, [pc, #316]	; (2aac <usb_init+0x1d0>)
    2970:	400b      	ands	r3, r1
    2972:	019b      	lsls	r3, r3, #6
    2974:	4030      	ands	r0, r6
    2976:	4303      	orrs	r3, r0
    2978:	852b      	strh	r3, [r5, #40]	; 0x28
    297a:	6813      	ldr	r3, [r2, #0]
    297c:	0c9b      	lsrs	r3, r3, #18
    297e:	400b      	ands	r3, r1
    2980:	2b1f      	cmp	r3, #31
    2982:	d100      	bne.n	2986 <usb_init+0xaa>
    2984:	3b02      	subs	r3, #2
    2986:	201f      	movs	r0, #31
    2988:	8d29      	ldrh	r1, [r5, #40]	; 0x28
    298a:	4003      	ands	r3, r0
    298c:	4381      	bics	r1, r0
    298e:	430b      	orrs	r3, r1
    2990:	2107      	movs	r1, #7
    2992:	852b      	strh	r3, [r5, #40]	; 0x28
    2994:	6813      	ldr	r3, [r2, #0]
    2996:	0ddb      	lsrs	r3, r3, #23
    2998:	400b      	ands	r3, r1
    299a:	428b      	cmp	r3, r1
    299c:	d100      	bne.n	29a0 <usb_init+0xc4>
    299e:	2303      	movs	r3, #3
    29a0:	8d2a      	ldrh	r2, [r5, #40]	; 0x28
    29a2:	400b      	ands	r3, r1
    29a4:	4942      	ldr	r1, [pc, #264]	; (2ab0 <usb_init+0x1d4>)
    29a6:	031b      	lsls	r3, r3, #12
    29a8:	400a      	ands	r2, r1
    29aa:	217f      	movs	r1, #127	; 0x7f
    29ac:	4313      	orrs	r3, r2
    29ae:	852b      	strh	r3, [r5, #40]	; 0x28
    29b0:	782b      	ldrb	r3, [r5, #0]
    29b2:	783a      	ldrb	r2, [r7, #0]
    29b4:	400b      	ands	r3, r1
    29b6:	01d2      	lsls	r2, r2, #7
    29b8:	4313      	orrs	r3, r2
    29ba:	702b      	strb	r3, [r5, #0]
    29bc:	787a      	ldrb	r2, [r7, #1]
    29be:	782b      	ldrb	r3, [r5, #0]
    29c0:	397e      	subs	r1, #126	; 0x7e
    29c2:	400a      	ands	r2, r1
    29c4:	3103      	adds	r1, #3
    29c6:	0092      	lsls	r2, r2, #2
    29c8:	438b      	bics	r3, r1
    29ca:	483a      	ldr	r0, [pc, #232]	; (2ab4 <usb_init+0x1d8>)
    29cc:	4313      	orrs	r3, r2
    29ce:	702b      	strb	r3, [r5, #0]
    29d0:	6268      	str	r0, [r5, #36]	; 0x24
    29d2:	78fb      	ldrb	r3, [r7, #3]
    29d4:	2b01      	cmp	r3, #1
    29d6:	d14f      	bne.n	2a78 <usb_init+0x19c>
    29d8:	6822      	ldr	r2, [r4, #0]
    29da:	3108      	adds	r1, #8
    29dc:	8913      	ldrh	r3, [r2, #8]
    29de:	438b      	bics	r3, r1
    29e0:	8113      	strh	r3, [r2, #8]
    29e2:	2280      	movs	r2, #128	; 0x80
    29e4:	2100      	movs	r1, #0
    29e6:	0052      	lsls	r2, r2, #1
    29e8:	4b33      	ldr	r3, [pc, #204]	; (2ab8 <usb_init+0x1dc>)
    29ea:	4798      	blx	r3
    29ec:	0022      	movs	r2, r4
    29ee:	2100      	movs	r1, #0
    29f0:	1d23      	adds	r3, r4, #4
    29f2:	3224      	adds	r2, #36	; 0x24
    29f4:	c302      	stmia	r3!, {r1}
    29f6:	4293      	cmp	r3, r2
    29f8:	d1fc      	bne.n	29f4 <usb_init+0x118>
    29fa:	0021      	movs	r1, r4
    29fc:	2200      	movs	r2, #0
    29fe:	31a4      	adds	r1, #164	; 0xa4
    2a00:	601a      	str	r2, [r3, #0]
    2a02:	605a      	str	r2, [r3, #4]
    2a04:	609a      	str	r2, [r3, #8]
    2a06:	60da      	str	r2, [r3, #12]
    2a08:	3310      	adds	r3, #16
    2a0a:	428b      	cmp	r3, r1
    2a0c:	d1f8      	bne.n	2a00 <usb_init+0x124>
    2a0e:	701a      	strb	r2, [r3, #0]
    2a10:	0023      	movs	r3, r4
    2a12:	0021      	movs	r1, r4
    2a14:	33a5      	adds	r3, #165	; 0xa5
    2a16:	701a      	strb	r2, [r3, #0]
    2a18:	2200      	movs	r2, #0
    2a1a:	3301      	adds	r3, #1
    2a1c:	31ae      	adds	r1, #174	; 0xae
    2a1e:	701a      	strb	r2, [r3, #0]
    2a20:	721a      	strb	r2, [r3, #8]
    2a22:	3301      	adds	r3, #1
    2a24:	428b      	cmp	r3, r1
    2a26:	d1fa      	bne.n	2a1e <usb_init+0x142>
    2a28:	0023      	movs	r3, r4
    2a2a:	0022      	movs	r2, r4
    2a2c:	2100      	movs	r1, #0
    2a2e:	33b8      	adds	r3, #184	; 0xb8
    2a30:	32d4      	adds	r2, #212	; 0xd4
    2a32:	c302      	stmia	r3!, {r1}
    2a34:	4293      	cmp	r3, r2
    2a36:	d1fc      	bne.n	2a32 <usb_init+0x156>
    2a38:	0021      	movs	r1, r4
    2a3a:	2200      	movs	r2, #0
    2a3c:	3155      	adds	r1, #85	; 0x55
    2a3e:	31ff      	adds	r1, #255	; 0xff
    2a40:	601a      	str	r2, [r3, #0]
    2a42:	605a      	str	r2, [r3, #4]
    2a44:	609a      	str	r2, [r3, #8]
    2a46:	60da      	str	r2, [r3, #12]
    2a48:	3310      	adds	r3, #16
    2a4a:	4299      	cmp	r1, r3
    2a4c:	d1f8      	bne.n	2a40 <usb_init+0x164>
    2a4e:	23aa      	movs	r3, #170	; 0xaa
    2a50:	005b      	lsls	r3, r3, #1
    2a52:	52e2      	strh	r2, [r4, r3]
    2a54:	3302      	adds	r3, #2
    2a56:	52e2      	strh	r2, [r4, r3]
    2a58:	0023      	movs	r3, r4
    2a5a:	2200      	movs	r2, #0
    2a5c:	3359      	adds	r3, #89	; 0x59
    2a5e:	3461      	adds	r4, #97	; 0x61
    2a60:	33ff      	adds	r3, #255	; 0xff
    2a62:	34ff      	adds	r4, #255	; 0xff
    2a64:	701a      	strb	r2, [r3, #0]
    2a66:	721a      	strb	r2, [r3, #8]
    2a68:	3301      	adds	r3, #1
    2a6a:	429c      	cmp	r4, r3
    2a6c:	d1fa      	bne.n	2a64 <usb_init+0x188>
    2a6e:	2280      	movs	r2, #128	; 0x80
    2a70:	4b12      	ldr	r3, [pc, #72]	; (2abc <usb_init+0x1e0>)
    2a72:	2000      	movs	r0, #0
    2a74:	601a      	str	r2, [r3, #0]
    2a76:	bdfe      	pop	{r1, r2, r3, r4, r5, r6, r7, pc}
    2a78:	2b00      	cmp	r3, #0
    2a7a:	d1b2      	bne.n	29e2 <usb_init+0x106>
    2a7c:	250c      	movs	r5, #12
    2a7e:	6822      	ldr	r2, [r4, #0]
    2a80:	8913      	ldrh	r3, [r2, #8]
    2a82:	43ab      	bics	r3, r5
    2a84:	4319      	orrs	r1, r3
    2a86:	8111      	strh	r1, [r2, #8]
    2a88:	e7ab      	b.n	29e2 <usb_init+0x106>
    2a8a:	46c0      	nop			; (mov r8, r8)
    2a8c:	20000190 	.word	0x20000190
    2a90:	20000180 	.word	0x20000180
    2a94:	40000400 	.word	0x40000400
    2a98:	000011ad 	.word	0x000011ad
    2a9c:	0000110d 	.word	0x0000110d
    2aa0:	00001085 	.word	0x00001085
    2aa4:	41005000 	.word	0x41005000
    2aa8:	00806024 	.word	0x00806024
    2aac:	fffff83f 	.word	0xfffff83f
    2ab0:	ffff8fff 	.word	0xffff8fff
    2ab4:	200003a8 	.word	0x200003a8
    2ab8:	0000306b 	.word	0x0000306b
    2abc:	e000e100 	.word	0xe000e100

00002ac0 <Dummy_Handler>:
    2ac0:	e7fe      	b.n	2ac0 <Dummy_Handler>
	...

00002ac4 <Reset_Handler>:
    2ac4:	4821      	ldr	r0, [pc, #132]	; (2b4c <Reset_Handler+0x88>)
    2ac6:	4922      	ldr	r1, [pc, #136]	; (2b50 <Reset_Handler+0x8c>)
    2ac8:	b570      	push	{r4, r5, r6, lr}
    2aca:	4288      	cmp	r0, r1
    2acc:	d004      	beq.n	2ad8 <Reset_Handler+0x14>
    2ace:	2300      	movs	r3, #0
    2ad0:	4c20      	ldr	r4, [pc, #128]	; (2b54 <Reset_Handler+0x90>)
    2ad2:	18ca      	adds	r2, r1, r3
    2ad4:	42a2      	cmp	r2, r4
    2ad6:	d332      	bcc.n	2b3e <Reset_Handler+0x7a>
    2ad8:	2100      	movs	r1, #0
    2ada:	4b1f      	ldr	r3, [pc, #124]	; (2b58 <Reset_Handler+0x94>)
    2adc:	4a1f      	ldr	r2, [pc, #124]	; (2b5c <Reset_Handler+0x98>)
    2ade:	4293      	cmp	r3, r2
    2ae0:	d331      	bcc.n	2b46 <Reset_Handler+0x82>
    2ae2:	21ff      	movs	r1, #255	; 0xff
    2ae4:	4b1e      	ldr	r3, [pc, #120]	; (2b60 <Reset_Handler+0x9c>)
    2ae6:	4a1f      	ldr	r2, [pc, #124]	; (2b64 <Reset_Handler+0xa0>)
    2ae8:	438b      	bics	r3, r1
    2aea:	6093      	str	r3, [r2, #8]
    2aec:	2202      	movs	r2, #2
    2aee:	250c      	movs	r5, #12
    2af0:	2408      	movs	r4, #8
    2af2:	2630      	movs	r6, #48	; 0x30
    2af4:	4b1c      	ldr	r3, [pc, #112]	; (2b68 <Reset_Handler+0xa4>)
    2af6:	481d      	ldr	r0, [pc, #116]	; (2b6c <Reset_Handler+0xa8>)
    2af8:	625a      	str	r2, [r3, #36]	; 0x24
    2afa:	78c3      	ldrb	r3, [r0, #3]
    2afc:	39fc      	subs	r1, #252	; 0xfc
    2afe:	438b      	bics	r3, r1
    2b00:	4313      	orrs	r3, r2
    2b02:	70c3      	strb	r3, [r0, #3]
    2b04:	78c3      	ldrb	r3, [r0, #3]
    2b06:	43ab      	bics	r3, r5
    2b08:	4323      	orrs	r3, r4
    2b0a:	70c3      	strb	r3, [r0, #3]
    2b0c:	4b18      	ldr	r3, [pc, #96]	; (2b70 <Reset_Handler+0xac>)
    2b0e:	7b98      	ldrb	r0, [r3, #14]
    2b10:	43b0      	bics	r0, r6
    2b12:	0006      	movs	r6, r0
    2b14:	2020      	movs	r0, #32
    2b16:	4330      	orrs	r0, r6
    2b18:	7398      	strb	r0, [r3, #14]
    2b1a:	7b98      	ldrb	r0, [r3, #14]
    2b1c:	43a8      	bics	r0, r5
    2b1e:	4304      	orrs	r4, r0
    2b20:	739c      	strb	r4, [r3, #14]
    2b22:	7b98      	ldrb	r0, [r3, #14]
    2b24:	4388      	bics	r0, r1
    2b26:	4302      	orrs	r2, r0
    2b28:	739a      	strb	r2, [r3, #14]
    2b2a:	2380      	movs	r3, #128	; 0x80
    2b2c:	4a11      	ldr	r2, [pc, #68]	; (2b74 <Reset_Handler+0xb0>)
    2b2e:	6851      	ldr	r1, [r2, #4]
    2b30:	430b      	orrs	r3, r1
    2b32:	6053      	str	r3, [r2, #4]
    2b34:	4b10      	ldr	r3, [pc, #64]	; (2b78 <Reset_Handler+0xb4>)
    2b36:	4798      	blx	r3
    2b38:	4b10      	ldr	r3, [pc, #64]	; (2b7c <Reset_Handler+0xb8>)
    2b3a:	4798      	blx	r3
    2b3c:	e7fe      	b.n	2b3c <Reset_Handler+0x78>
    2b3e:	58c5      	ldr	r5, [r0, r3]
    2b40:	3304      	adds	r3, #4
    2b42:	6015      	str	r5, [r2, #0]
    2b44:	e7c5      	b.n	2ad2 <Reset_Handler+0xe>
    2b46:	c302      	stmia	r3!, {r1}
    2b48:	e7c9      	b.n	2ade <Reset_Handler+0x1a>
    2b4a:	46c0      	nop			; (mov r8, r8)
    2b4c:	000030ac 	.word	0x000030ac
    2b50:	20000000 	.word	0x20000000
    2b54:	200000dc 	.word	0x200000dc
    2b58:	200000dc 	.word	0x200000dc
    2b5c:	200004a8 	.word	0x200004a8
    2b60:	00000000 	.word	0x00000000
    2b64:	e000ed00 	.word	0xe000ed00
    2b68:	410070fc 	.word	0x410070fc
    2b6c:	41005000 	.word	0x41005000
    2b70:	41004800 	.word	0x41004800
    2b74:	41004000 	.word	0x41004000
    2b78:	00003011 	.word	0x00003011
    2b7c:	00002b81 	.word	0x00002b81

00002b80 <main>:
    2b80:	b5f8      	push	{r3, r4, r5, r6, r7, lr}
    2b82:	2701      	movs	r7, #1
    2b84:	4d29      	ldr	r5, [pc, #164]	; (2c2c <main+0xac>)
    2b86:	702f      	strb	r7, [r5, #0]
    2b88:	f3bf 8f5f 	dmb	sy
    2b8c:	b662      	cpsie	i
    2b8e:	2600      	movs	r6, #0
    2b90:	4c27      	ldr	r4, [pc, #156]	; (2c30 <main+0xb0>)
    2b92:	4b28      	ldr	r3, [pc, #160]	; (2c34 <main+0xb4>)
    2b94:	7026      	strb	r6, [r4, #0]
    2b96:	7066      	strb	r6, [r4, #1]
    2b98:	70a6      	strb	r6, [r4, #2]
    2b9a:	70e6      	strb	r6, [r4, #3]
    2b9c:	7127      	strb	r7, [r4, #4]
    2b9e:	4798      	blx	r3
    2ba0:	4b25      	ldr	r3, [pc, #148]	; (2c38 <main+0xb8>)
    2ba2:	4798      	blx	r3
    2ba4:	4b25      	ldr	r3, [pc, #148]	; (2c3c <main+0xbc>)
    2ba6:	4798      	blx	r3
    2ba8:	4b25      	ldr	r3, [pc, #148]	; (2c40 <main+0xc0>)
    2baa:	4798      	blx	r3
    2bac:	b672      	cpsid	i
    2bae:	f3bf 8f5f 	dmb	sy
    2bb2:	2200      	movs	r2, #0
    2bb4:	702e      	strb	r6, [r5, #0]
    2bb6:	5ca0      	ldrb	r0, [r4, r2]
    2bb8:	b2d3      	uxtb	r3, r2
    2bba:	3201      	adds	r2, #1
    2bbc:	2800      	cmp	r0, #0
    2bbe:	d0fa      	beq.n	2bb6 <main+0x36>
    2bc0:	2b00      	cmp	r3, #0
    2bc2:	d104      	bne.n	2bce <main+0x4e>
    2bc4:	702f      	strb	r7, [r5, #0]
    2bc6:	f3bf 8f5f 	dmb	sy
    2bca:	b662      	cpsie	i
    2bcc:	e7ee      	b.n	2bac <main+0x2c>
    2bce:	b672      	cpsid	i
    2bd0:	f3bf 8f5f 	dmb	sy
    2bd4:	210f      	movs	r1, #15
    2bd6:	4a1b      	ldr	r2, [pc, #108]	; (2c44 <main+0xc4>)
    2bd8:	702e      	strb	r6, [r5, #0]
    2bda:	6992      	ldr	r2, [r2, #24]
    2bdc:	3b01      	subs	r3, #1
    2bde:	0a12      	lsrs	r2, r2, #8
    2be0:	b2db      	uxtb	r3, r3
    2be2:	400a      	ands	r2, r1
    2be4:	2a02      	cmp	r2, #2
    2be6:	d807      	bhi.n	2bf8 <main+0x78>
    2be8:	4817      	ldr	r0, [pc, #92]	; (2c48 <main+0xc8>)
    2bea:	6842      	ldr	r2, [r0, #4]
    2bec:	4694      	mov	ip, r2
    2bee:	22c0      	movs	r2, #192	; 0xc0
    2bf0:	4661      	mov	r1, ip
    2bf2:	0092      	lsls	r2, r2, #2
    2bf4:	430a      	orrs	r2, r1
    2bf6:	6042      	str	r2, [r0, #4]
    2bf8:	2b02      	cmp	r3, #2
    2bfa:	d909      	bls.n	2c10 <main+0x90>
    2bfc:	2b03      	cmp	r3, #3
    2bfe:	d00f      	beq.n	2c20 <main+0xa0>
    2c00:	702f      	strb	r7, [r5, #0]
    2c02:	f3bf 8f5f 	dmb	sy
    2c06:	b662      	cpsie	i
    2c08:	f3bf 8f4f 	dsb	sy
    2c0c:	bf30      	wfi
    2c0e:	e7cd      	b.n	2bac <main+0x2c>
    2c10:	2104      	movs	r1, #4
    2c12:	480e      	ldr	r0, [pc, #56]	; (2c4c <main+0xcc>)
    2c14:	6902      	ldr	r2, [r0, #16]
    2c16:	438a      	bics	r2, r1
    2c18:	6102      	str	r2, [r0, #16]
    2c1a:	4a0d      	ldr	r2, [pc, #52]	; (2c50 <main+0xd0>)
    2c1c:	7053      	strb	r3, [r2, #1]
    2c1e:	e7ef      	b.n	2c00 <main+0x80>
    2c20:	2304      	movs	r3, #4
    2c22:	4a0a      	ldr	r2, [pc, #40]	; (2c4c <main+0xcc>)
    2c24:	6910      	ldr	r0, [r2, #16]
    2c26:	4303      	orrs	r3, r0
    2c28:	6113      	str	r3, [r2, #16]
    2c2a:	e7e9      	b.n	2c00 <main+0x80>
    2c2c:	200000d7 	.word	0x200000d7
    2c30:	2000019a 	.word	0x2000019a
    2c34:	000011dd 	.word	0x000011dd
    2c38:	00000115 	.word	0x00000115
    2c3c:	00000145 	.word	0x00000145
    2c40:	00000629 	.word	0x00000629
    2c44:	41002000 	.word	0x41002000
    2c48:	41004000 	.word	0x41004000
    2c4c:	e000ed00 	.word	0xe000ed00
    2c50:	40000400 	.word	0x40000400

00002c54 <main_suspend_action>:
    2c54:	b510      	push	{r4, lr}
    2c56:	4b01      	ldr	r3, [pc, #4]	; (2c5c <main_suspend_action+0x8>)
    2c58:	4798      	blx	r3
    2c5a:	bd10      	pop	{r4, pc}
    2c5c:	00000145 	.word	0x00000145

00002c60 <main_resume_action>:
    2c60:	b510      	push	{r4, lr}
    2c62:	4b01      	ldr	r3, [pc, #4]	; (2c68 <main_resume_action+0x8>)
    2c64:	4798      	blx	r3
    2c66:	bd10      	pop	{r4, pc}
    2c68:	00000159 	.word	0x00000159

00002c6c <main_sof_action>:
    2c6c:	b510      	push	{r4, lr}
    2c6e:	4b04      	ldr	r3, [pc, #16]	; (2c80 <main_sof_action+0x14>)
    2c70:	781b      	ldrb	r3, [r3, #0]
    2c72:	2b00      	cmp	r3, #0
    2c74:	d003      	beq.n	2c7e <main_sof_action+0x12>
    2c76:	4b03      	ldr	r3, [pc, #12]	; (2c84 <main_sof_action+0x18>)
    2c78:	4798      	blx	r3
    2c7a:	4b03      	ldr	r3, [pc, #12]	; (2c88 <main_sof_action+0x1c>)
    2c7c:	4798      	blx	r3
    2c7e:	bd10      	pop	{r4, pc}
    2c80:	200000d8 	.word	0x200000d8
    2c84:	00001859 	.word	0x00001859
    2c88:	00000169 	.word	0x00000169

00002c8c <main_remotewakeup_enable>:
    2c8c:	b510      	push	{r4, lr}
    2c8e:	4b01      	ldr	r3, [pc, #4]	; (2c94 <main_remotewakeup_enable+0x8>)
    2c90:	4798      	blx	r3
    2c92:	bd10      	pop	{r4, pc}
    2c94:	00000155 	.word	0x00000155

00002c98 <main_remotewakeup_disable>:
    2c98:	b510      	push	{r4, lr}
    2c9a:	4b01      	ldr	r3, [pc, #4]	; (2ca0 <main_remotewakeup_disable+0x8>)
    2c9c:	4798      	blx	r3
    2c9e:	bd10      	pop	{r4, pc}
    2ca0:	00000157 	.word	0x00000157

00002ca4 <main_kbd_enable>:
    2ca4:	2001      	movs	r0, #1
    2ca6:	4b01      	ldr	r3, [pc, #4]	; (2cac <main_kbd_enable+0x8>)
    2ca8:	7018      	strb	r0, [r3, #0]
    2caa:	4770      	bx	lr
    2cac:	200000d8 	.word	0x200000d8

00002cb0 <main_kbd_disable>:
    2cb0:	2200      	movs	r2, #0
    2cb2:	4b01      	ldr	r3, [pc, #4]	; (2cb8 <main_kbd_disable+0x8>)
    2cb4:	701a      	strb	r2, [r3, #0]
    2cb6:	4770      	bx	lr
    2cb8:	200000d8 	.word	0x200000d8

00002cbc <__gnu_thumb1_case_uqi>:
    2cbc:	b402      	push	{r1}
    2cbe:	4671      	mov	r1, lr
    2cc0:	0849      	lsrs	r1, r1, #1
    2cc2:	0049      	lsls	r1, r1, #1
    2cc4:	5c09      	ldrb	r1, [r1, r0]
    2cc6:	0049      	lsls	r1, r1, #1
    2cc8:	448e      	add	lr, r1
    2cca:	bc02      	pop	{r1}
    2ccc:	4770      	bx	lr
    2cce:	46c0      	nop			; (mov r8, r8)

00002cd0 <__gnu_thumb1_case_shi>:
    2cd0:	b403      	push	{r0, r1}
    2cd2:	4671      	mov	r1, lr
    2cd4:	0849      	lsrs	r1, r1, #1
    2cd6:	0040      	lsls	r0, r0, #1
    2cd8:	0049      	lsls	r1, r1, #1
    2cda:	5e09      	ldrsh	r1, [r1, r0]
    2cdc:	0049      	lsls	r1, r1, #1
    2cde:	448e      	add	lr, r1
    2ce0:	bc03      	pop	{r0, r1}
    2ce2:	4770      	bx	lr

00002ce4 <__udivsi3>:
    2ce4:	2200      	movs	r2, #0
    2ce6:	0843      	lsrs	r3, r0, #1
    2ce8:	428b      	cmp	r3, r1
    2cea:	d374      	bcc.n	2dd6 <__udivsi3+0xf2>
    2cec:	0903      	lsrs	r3, r0, #4
    2cee:	428b      	cmp	r3, r1
    2cf0:	d35f      	bcc.n	2db2 <__udivsi3+0xce>
    2cf2:	0a03      	lsrs	r3, r0, #8
    2cf4:	428b      	cmp	r3, r1
    2cf6:	d344      	bcc.n	2d82 <__udivsi3+0x9e>
    2cf8:	0b03      	lsrs	r3, r0, #12
    2cfa:	428b      	cmp	r3, r1
    2cfc:	d328      	bcc.n	2d50 <__udivsi3+0x6c>
    2cfe:	0c03      	lsrs	r3, r0, #16
    2d00:	428b      	cmp	r3, r1
    2d02:	d30d      	bcc.n	2d20 <__udivsi3+0x3c>
    2d04:	22ff      	movs	r2, #255	; 0xff
    2d06:	0209      	lsls	r1, r1, #8
    2d08:	ba12      	rev	r2, r2
    2d0a:	0c03      	lsrs	r3, r0, #16
    2d0c:	428b      	cmp	r3, r1
    2d0e:	d302      	bcc.n	2d16 <__udivsi3+0x32>
    2d10:	1212      	asrs	r2, r2, #8
    2d12:	0209      	lsls	r1, r1, #8
    2d14:	d065      	beq.n	2de2 <__udivsi3+0xfe>
    2d16:	0b03      	lsrs	r3, r0, #12
    2d18:	428b      	cmp	r3, r1
    2d1a:	d319      	bcc.n	2d50 <__udivsi3+0x6c>
    2d1c:	e000      	b.n	2d20 <__udivsi3+0x3c>
    2d1e:	0a09      	lsrs	r1, r1, #8
    2d20:	0bc3      	lsrs	r3, r0, #15
    2d22:	428b      	cmp	r3, r1
    2d24:	d301      	bcc.n	2d2a <__udivsi3+0x46>
    2d26:	03cb      	lsls	r3, r1, #15
    2d28:	1ac0      	subs	r0, r0, r3
    2d2a:	4152      	adcs	r2, r2
    2d2c:	0b83      	lsrs	r3, r0, #14
    2d2e:	428b      	cmp	r3, r1
    2d30:	d301      	bcc.n	2d36 <__udivsi3+0x52>
    2d32:	038b      	lsls	r3, r1, #14
    2d34:	1ac0      	subs	r0, r0, r3
    2d36:	4152      	adcs	r2, r2
    2d38:	0b43      	lsrs	r3, r0, #13
    2d3a:	428b      	cmp	r3, r1
    2d3c:	d301      	bcc.n	2d42 <__udivsi3+0x5e>
    2d3e:	034b      	lsls	r3, r1, #13
    2d40:	1ac0      	subs	r0, r0, r3
    2d42:	4152      	adcs	r2, r2
    2d44:	0b03      	lsrs	r3, r0, #12
    2d46:	428b      	cmp	r3, r1
    2d48:	d301      	bcc.n	2d4e <__udivsi3+0x6a>
    2d4a:	030b      	lsls	r3, r1, #12
    2d4c:	1ac0      	subs	r0, r0, r3
    2d4e:	4152      	adcs	r2, r2
    2d50:	0ac3      	lsrs	r3, r0, #11
    2d52:	428b      	cmp	r3, r1
    2d54:	d301      	bcc.n	2d5a <__udivsi3+0x76>
    2d56:	02cb      	lsls	r3, r1, #11
    2d58:	1ac0      	subs	r0, r0, r3
    2d5a:	4152      	adcs	r2, r2
    2d5c:	0a83      	lsrs	r3, r0, #10
    2d5e:	428b      	cmp	r3, r1
    2d60:	d301      	bcc.n	2d66 <__udivsi3+0x82>
    2d62:	028b      	lsls	r3, r1, #10
    2d64:	1ac0      	subs	r0, r0, r3
    2d66:	4152      	adcs	r2, r2
    2d68:	0a43      	lsrs	r3, r0, #9
    2d6a:	428b      	cmp	r3, r1
    2d6c:	d301      	bcc.n	2d72 <__udivsi3+0x8e>
    2d6e:	024b      	lsls	r3, r1, #9
    2d70:	1ac0      	subs	r0, r0, r3
    2d72:	4152      	adcs	r2, r2
    2d74:	0a03      	lsrs	r3, r0, #8
    2d76:	428b      	cmp	r3, r1
    2d78:	d301      	bcc.n	2d7e <__udivsi3+0x9a>
    2d7a:	020b      	lsls	r3, r1, #8
    2d7c:	1ac0      	subs	r0, r0, r3
    2d7e:	4152      	adcs	r2, r2
    2d80:	d2cd      	bcs.n	2d1e <__udivsi3+0x3a>
    2d82:	09c3      	lsrs	r3, r0, #7
    2d84:	428b      	cmp	r3, r1
    2d86:	d301      	bcc.n	2d8c <__udivsi3+0xa8>
    2d88:	01cb      	lsls	r3, r1, #7
    2d8a:	1ac0      	subs	r0, r0, r3
    2d8c:	4152      	adcs	r2, r2
    2d8e:	0983      	lsrs	r3, r0, #6
    2d90:	428b      	cmp	r3, r1
    2d92:	d301      	bcc.n	2d98 <__udivsi3+0xb4>
    2d94:	018b      	lsls	r3, r1, #6
    2d96:	1ac0      	subs	r0, r0, r3
    2d98:	4152      	adcs	r2, r2
    2d9a:	0943      	lsrs	r3, r0, #5
    2d9c:	428b      	cmp	r3, r1
    2d9e:	d301      	bcc.n	2da4 <__udivsi3+0xc0>
    2da0:	014b      	lsls	r3, r1, #5
    2da2:	1ac0      	subs	r0, r0, r3
    2da4:	4152      	adcs	r2, r2
    2da6:	0903      	lsrs	r3, r0, #4
    2da8:	428b      	cmp	r3, r1
    2daa:	d301      	bcc.n	2db0 <__udivsi3+0xcc>
    2dac:	010b      	lsls	r3, r1, #4
    2dae:	1ac0      	subs	r0, r0, r3
    2db0:	4152      	adcs	r2, r2
    2db2:	08c3      	lsrs	r3, r0, #3
    2db4:	428b      	cmp	r3, r1
    2db6:	d301      	bcc.n	2dbc <__udivsi3+0xd8>
    2db8:	00cb      	lsls	r3, r1, #3
    2dba:	1ac0      	subs	r0, r0, r3
    2dbc:	4152      	adcs	r2, r2
    2dbe:	0883      	lsrs	r3, r0, #2
    2dc0:	428b      	cmp	r3, r1
    2dc2:	d301      	bcc.n	2dc8 <__udivsi3+0xe4>
    2dc4:	008b      	lsls	r3, r1, #2
    2dc6:	1ac0      	subs	r0, r0, r3
    2dc8:	4152      	adcs	r2, r2
    2dca:	0843      	lsrs	r3, r0, #1
    2dcc:	428b      	cmp	r3, r1
    2dce:	d301      	bcc.n	2dd4 <__udivsi3+0xf0>
    2dd0:	004b      	lsls	r3, r1, #1
    2dd2:	1ac0      	subs	r0, r0, r3
    2dd4:	4152      	adcs	r2, r2
    2dd6:	1a41      	subs	r1, r0, r1
    2dd8:	d200      	bcs.n	2ddc <__udivsi3+0xf8>
    2dda:	4601      	mov	r1, r0
    2ddc:	4152      	adcs	r2, r2
    2dde:	4610      	mov	r0, r2
    2de0:	4770      	bx	lr
    2de2:	e7ff      	b.n	2de4 <__udivsi3+0x100>
    2de4:	b501      	push	{r0, lr}
    2de6:	2000      	movs	r0, #0
    2de8:	f000 f8f0 	bl	2fcc <__aeabi_idiv0>
    2dec:	bd02      	pop	{r1, pc}
    2dee:	46c0      	nop			; (mov r8, r8)

00002df0 <__aeabi_uidivmod>:
    2df0:	2900      	cmp	r1, #0
    2df2:	d0f7      	beq.n	2de4 <__udivsi3+0x100>
    2df4:	e776      	b.n	2ce4 <__udivsi3>
    2df6:	4770      	bx	lr

00002df8 <__divsi3>:
    2df8:	4603      	mov	r3, r0
    2dfa:	430b      	orrs	r3, r1
    2dfc:	d47f      	bmi.n	2efe <__divsi3+0x106>
    2dfe:	2200      	movs	r2, #0
    2e00:	0843      	lsrs	r3, r0, #1
    2e02:	428b      	cmp	r3, r1
    2e04:	d374      	bcc.n	2ef0 <__divsi3+0xf8>
    2e06:	0903      	lsrs	r3, r0, #4
    2e08:	428b      	cmp	r3, r1
    2e0a:	d35f      	bcc.n	2ecc <__divsi3+0xd4>
    2e0c:	0a03      	lsrs	r3, r0, #8
    2e0e:	428b      	cmp	r3, r1
    2e10:	d344      	bcc.n	2e9c <__divsi3+0xa4>
    2e12:	0b03      	lsrs	r3, r0, #12
    2e14:	428b      	cmp	r3, r1
    2e16:	d328      	bcc.n	2e6a <__divsi3+0x72>
    2e18:	0c03      	lsrs	r3, r0, #16
    2e1a:	428b      	cmp	r3, r1
    2e1c:	d30d      	bcc.n	2e3a <__divsi3+0x42>
    2e1e:	22ff      	movs	r2, #255	; 0xff
    2e20:	0209      	lsls	r1, r1, #8
    2e22:	ba12      	rev	r2, r2
    2e24:	0c03      	lsrs	r3, r0, #16
    2e26:	428b      	cmp	r3, r1
    2e28:	d302      	bcc.n	2e30 <__divsi3+0x38>
    2e2a:	1212      	asrs	r2, r2, #8
    2e2c:	0209      	lsls	r1, r1, #8
    2e2e:	d065      	beq.n	2efc <__divsi3+0x104>
    2e30:	0b03      	lsrs	r3, r0, #12
    2e32:	428b      	cmp	r3, r1
    2e34:	d319      	bcc.n	2e6a <__divsi3+0x72>
    2e36:	e000      	b.n	2e3a <__divsi3+0x42>
    2e38:	0a09      	lsrs	r1, r1, #8
    2e3a:	0bc3      	lsrs	r3, r0, #15
    2e3c:	428b      	cmp	r3, r1
    2e3e:	d301      	bcc.n	2e44 <__divsi3+0x4c>
    2e40:	03cb      	lsls	r3, r1, #15
    2e42:	1ac0      	subs	r0, r0, r3
    2e44:	4152      	adcs	r2, r2
    2e46:	0b83      	lsrs	r3, r0, #14
    2e48:	428b      	cmp	r3, r1
    2e4a:	d301      	bcc.n	2e50 <__divsi3+0x58>
    2e4c:	038b      	lsls	r3, r1, #14
    2e4e:	1ac0      	subs	r0, r0, r3
    2e50:	4152      	adcs	r2, r2
    2e52:	0b43      	lsrs	r3, r0, #13
    2e54:	428b      	cmp	r3, r1
    2e56:	d301      	bcc.n	2e5c <__divsi3+0x64>
    2e58:	034b      	lsls	r3, r1, #13
    2e5a:	1ac0      	subs	r0, r0, r3
    2e5c:	4152      	adcs	r2, r2
    2e5e:	0b03      	lsrs	r3, r0, #12
    2e60:	428b      	cmp	r3, r1
    2e62:	d301      	bcc.n	2e68 <__divsi3+0x70>
    2e64:	030b      	lsls	r3, r1, #12
    2e66:	1ac0      	subs	r0, r0, r3
    2e68:	4152      	adcs	r2, r2
    2e6a:	0ac3      	lsrs	r3, r0, #11
    2e6c:	428b      	cmp	r3, r1
    2e6e:	d301      	bcc.n	2e74 <__divsi3+0x7c>
    2e70:	02cb      	lsls	r3, r1, #11
    2e72:	1ac0      	subs	r0, r0, r3
    2e74:	4152      	adcs	r2, r2
    2e76:	0a83      	lsrs	r3, r0, #10
    2e78:	428b      	cmp	r3, r1
    2e7a:	d301      	bcc.n	2e80 <__divsi3+0x88>
    2e7c:	028b      	lsls	r3, r1, #10
    2e7e:	1ac0      	subs	r0, r0, r3
    2e80:	4152      	adcs	r2, r2
    2e82:	0a43      	lsrs	r3, r0, #9
    2e84:	428b      	cmp	r3, r1
    2e86:	d301      	bcc.n	2e8c <__divsi3+0x94>
    2e88:	024b      	lsls	r3, r1, #9
    2e8a:	1ac0      	subs	r0, r0, r3
    2e8c:	4152      	adcs	r2, r2
    2e8e:	0a03      	lsrs	r3, r0, #8
    2e90:	428b      	cmp	r3, r1
    2e92:	d301      	bcc.n	2e98 <__divsi3+0xa0>
    2e94:	020b      	lsls	r3, r1, #8
    2e96:	1ac0      	subs	r0, r0, r3
    2e98:	4152      	adcs	r2, r2
    2e9a:	d2cd      	bcs.n	2e38 <__divsi3+0x40>
    2e9c:	09c3      	lsrs	r3, r0, #7
    2e9e:	428b      	cmp	r3, r1
    2ea0:	d301      	bcc.n	2ea6 <__divsi3+0xae>
    2ea2:	01cb      	lsls	r3, r1, #7
    2ea4:	1ac0      	subs	r0, r0, r3
    2ea6:	4152      	adcs	r2, r2
    2ea8:	0983      	lsrs	r3, r0, #6
    2eaa:	428b      	cmp	r3, r1
    2eac:	d301      	bcc.n	2eb2 <__divsi3+0xba>
    2eae:	018b      	lsls	r3, r1, #6
    2eb0:	1ac0      	subs	r0, r0, r3
    2eb2:	4152      	adcs	r2, r2
    2eb4:	0943      	lsrs	r3, r0, #5
    2eb6:	428b      	cmp	r3, r1
    2eb8:	d301      	bcc.n	2ebe <__divsi3+0xc6>
    2eba:	014b      	lsls	r3, r1, #5
    2ebc:	1ac0      	subs	r0, r0, r3
    2ebe:	4152      	adcs	r2, r2
    2ec0:	0903      	lsrs	r3, r0, #4
    2ec2:	428b      	cmp	r3, r1
    2ec4:	d301      	bcc.n	2eca <__divsi3+0xd2>
    2ec6:	010b      	lsls	r3, r1, #4
    2ec8:	1ac0      	subs	r0, r0, r3
    2eca:	4152      	adcs	r2, r2
    2ecc:	08c3      	lsrs	r3, r0, #3
    2ece:	428b      	cmp	r3, r1
    2ed0:	d301      	bcc.n	2ed6 <__divsi3+0xde>
    2ed2:	00cb      	lsls	r3, r1, #3
    2ed4:	1ac0      	subs	r0, r0, r3
    2ed6:	4152      	adcs	r2, r2
    2ed8:	0883      	lsrs	r3, r0, #2
    2eda:	428b      	cmp	r3, r1
    2edc:	d301      	bcc.n	2ee2 <__divsi3+0xea>
    2ede:	008b      	lsls	r3, r1, #2
    2ee0:	1ac0      	subs	r0, r0, r3
    2ee2:	4152      	adcs	r2, r2
    2ee4:	0843      	lsrs	r3, r0, #1
    2ee6:	428b      	cmp	r3, r1
    2ee8:	d301      	bcc.n	2eee <__divsi3+0xf6>
    2eea:	004b      	lsls	r3, r1, #1
    2eec:	1ac0      	subs	r0, r0, r3
    2eee:	4152      	adcs	r2, r2
    2ef0:	1a41      	subs	r1, r0, r1
    2ef2:	d200      	bcs.n	2ef6 <__divsi3+0xfe>
    2ef4:	4601      	mov	r1, r0
    2ef6:	4152      	adcs	r2, r2
    2ef8:	4610      	mov	r0, r2
    2efa:	4770      	bx	lr
    2efc:	e05d      	b.n	2fba <__divsi3+0x1c2>
    2efe:	0fca      	lsrs	r2, r1, #31
    2f00:	d000      	beq.n	2f04 <__divsi3+0x10c>
    2f02:	4249      	negs	r1, r1
    2f04:	1003      	asrs	r3, r0, #32
    2f06:	d300      	bcc.n	2f0a <__divsi3+0x112>
    2f08:	4240      	negs	r0, r0
    2f0a:	4053      	eors	r3, r2
    2f0c:	2200      	movs	r2, #0
    2f0e:	469c      	mov	ip, r3
    2f10:	0903      	lsrs	r3, r0, #4
    2f12:	428b      	cmp	r3, r1
    2f14:	d32d      	bcc.n	2f72 <__divsi3+0x17a>
    2f16:	0a03      	lsrs	r3, r0, #8
    2f18:	428b      	cmp	r3, r1
    2f1a:	d312      	bcc.n	2f42 <__divsi3+0x14a>
    2f1c:	22fc      	movs	r2, #252	; 0xfc
    2f1e:	0189      	lsls	r1, r1, #6
    2f20:	ba12      	rev	r2, r2
    2f22:	0a03      	lsrs	r3, r0, #8
    2f24:	428b      	cmp	r3, r1
    2f26:	d30c      	bcc.n	2f42 <__divsi3+0x14a>
    2f28:	0189      	lsls	r1, r1, #6
    2f2a:	1192      	asrs	r2, r2, #6
    2f2c:	428b      	cmp	r3, r1
    2f2e:	d308      	bcc.n	2f42 <__divsi3+0x14a>
    2f30:	0189      	lsls	r1, r1, #6
    2f32:	1192      	asrs	r2, r2, #6
    2f34:	428b      	cmp	r3, r1
    2f36:	d304      	bcc.n	2f42 <__divsi3+0x14a>
    2f38:	0189      	lsls	r1, r1, #6
    2f3a:	d03a      	beq.n	2fb2 <__divsi3+0x1ba>
    2f3c:	1192      	asrs	r2, r2, #6
    2f3e:	e000      	b.n	2f42 <__divsi3+0x14a>
    2f40:	0989      	lsrs	r1, r1, #6
    2f42:	09c3      	lsrs	r3, r0, #7
    2f44:	428b      	cmp	r3, r1
    2f46:	d301      	bcc.n	2f4c <__divsi3+0x154>
    2f48:	01cb      	lsls	r3, r1, #7
    2f4a:	1ac0      	subs	r0, r0, r3
    2f4c:	4152      	adcs	r2, r2
    2f4e:	0983      	lsrs	r3, r0, #6
    2f50:	428b      	cmp	r3, r1
    2f52:	d301      	bcc.n	2f58 <__divsi3+0x160>
    2f54:	018b      	lsls	r3, r1, #6
    2f56:	1ac0      	subs	r0, r0, r3
    2f58:	4152      	adcs	r2, r2
    2f5a:	0943      	lsrs	r3, r0, #5
    2f5c:	428b      	cmp	r3, r1
    2f5e:	d301      	bcc.n	2f64 <__divsi3+0x16c>
    2f60:	014b      	lsls	r3, r1, #5
    2f62:	1ac0      	subs	r0, r0, r3
    2f64:	4152      	adcs	r2, r2
    2f66:	0903      	lsrs	r3, r0, #4
    2f68:	428b      	cmp	r3, r1
    2f6a:	d301      	bcc.n	2f70 <__divsi3+0x178>
    2f6c:	010b      	lsls	r3, r1, #4
    2f6e:	1ac0      	subs	r0, r0, r3
    2f70:	4152      	adcs	r2, r2
    2f72:	08c3      	lsrs	r3, r0, #3
    2f74:	428b      	cmp	r3, r1
    2f76:	d301      	bcc.n	2f7c <__divsi3+0x184>
    2f78:	00cb      	lsls	r3, r1, #3
    2f7a:	1ac0      	subs	r0, r0, r3
    2f7c:	4152      	adcs	r2, r2
    2f7e:	0883      	lsrs	r3, r0, #2
    2f80:	428b      	cmp	r3, r1
    2f82:	d301      	bcc.n	2f88 <__divsi3+0x190>
    2f84:	008b      	lsls	r3, r1, #2
    2f86:	1ac0      	subs	r0, r0, r3
    2f88:	4152      	adcs	r2, r2
    2f8a:	d2d9      	bcs.n	2f40 <__divsi3+0x148>
    2f8c:	0843      	lsrs	r3, r0, #1
    2f8e:	428b      	cmp	r3, r1
    2f90:	d301      	bcc.n	2f96 <__divsi3+0x19e>
    2f92:	004b      	lsls	r3, r1, #1
    2f94:	1ac0      	subs	r0, r0, r3
    2f96:	4152      	adcs	r2, r2
    2f98:	1a41      	subs	r1, r0, r1
    2f9a:	d200      	bcs.n	2f9e <__divsi3+0x1a6>
    2f9c:	4601      	mov	r1, r0
    2f9e:	4663      	mov	r3, ip
    2fa0:	4152      	adcs	r2, r2
    2fa2:	105b      	asrs	r3, r3, #1
    2fa4:	4610      	mov	r0, r2
    2fa6:	d301      	bcc.n	2fac <__divsi3+0x1b4>
    2fa8:	4240      	negs	r0, r0
    2faa:	2b00      	cmp	r3, #0
    2fac:	d500      	bpl.n	2fb0 <__divsi3+0x1b8>
    2fae:	4249      	negs	r1, r1
    2fb0:	4770      	bx	lr
    2fb2:	4663      	mov	r3, ip
    2fb4:	105b      	asrs	r3, r3, #1
    2fb6:	d300      	bcc.n	2fba <__divsi3+0x1c2>
    2fb8:	4240      	negs	r0, r0
    2fba:	b501      	push	{r0, lr}
    2fbc:	2000      	movs	r0, #0
    2fbe:	f000 f805 	bl	2fcc <__aeabi_idiv0>
    2fc2:	bd02      	pop	{r1, pc}

00002fc4 <__aeabi_idivmod>:
    2fc4:	2900      	cmp	r1, #0
    2fc6:	d0f8      	beq.n	2fba <__divsi3+0x1c2>
    2fc8:	e716      	b.n	2df8 <__divsi3>
    2fca:	4770      	bx	lr

00002fcc <__aeabi_idiv0>:
    2fcc:	4770      	bx	lr
    2fce:	46c0      	nop			; (mov r8, r8)

00002fd0 <__ctzsi2>:
    2fd0:	4241      	negs	r1, r0
    2fd2:	4008      	ands	r0, r1
    2fd4:	211c      	movs	r1, #28
    2fd6:	2301      	movs	r3, #1
    2fd8:	041b      	lsls	r3, r3, #16
    2fda:	4298      	cmp	r0, r3
    2fdc:	d301      	bcc.n	2fe2 <__ctzsi2+0x12>
    2fde:	0c00      	lsrs	r0, r0, #16
    2fe0:	3910      	subs	r1, #16
    2fe2:	0a1b      	lsrs	r3, r3, #8
    2fe4:	4298      	cmp	r0, r3
    2fe6:	d301      	bcc.n	2fec <__ctzsi2+0x1c>
    2fe8:	0a00      	lsrs	r0, r0, #8
    2fea:	3908      	subs	r1, #8
    2fec:	091b      	lsrs	r3, r3, #4
    2fee:	4298      	cmp	r0, r3
    2ff0:	d301      	bcc.n	2ff6 <__ctzsi2+0x26>
    2ff2:	0900      	lsrs	r0, r0, #4
    2ff4:	3904      	subs	r1, #4
    2ff6:	a202      	add	r2, pc, #8	; (adr r2, 3000 <__ctzsi2+0x30>)
    2ff8:	5c10      	ldrb	r0, [r2, r0]
    2ffa:	1a40      	subs	r0, r0, r1
    2ffc:	4770      	bx	lr
    2ffe:	46c0      	nop			; (mov r8, r8)
    3000:	1d1d1c1b 	.word	0x1d1d1c1b
    3004:	1e1e1e1e 	.word	0x1e1e1e1e
    3008:	1f1f1f1f 	.word	0x1f1f1f1f
    300c:	1f1f1f1f 	.word	0x1f1f1f1f

00003010 <__libc_init_array>:
    3010:	b570      	push	{r4, r5, r6, lr}
    3012:	2600      	movs	r6, #0
    3014:	4d0c      	ldr	r5, [pc, #48]	; (3048 <__libc_init_array+0x38>)
    3016:	4c0d      	ldr	r4, [pc, #52]	; (304c <__libc_init_array+0x3c>)
    3018:	1b64      	subs	r4, r4, r5
    301a:	10a4      	asrs	r4, r4, #2
    301c:	42a6      	cmp	r6, r4
    301e:	d109      	bne.n	3034 <__libc_init_array+0x24>
    3020:	2600      	movs	r6, #0
    3022:	f000 f833 	bl	308c <_init>
    3026:	4d0a      	ldr	r5, [pc, #40]	; (3050 <__libc_init_array+0x40>)
    3028:	4c0a      	ldr	r4, [pc, #40]	; (3054 <__libc_init_array+0x44>)
    302a:	1b64      	subs	r4, r4, r5
    302c:	10a4      	asrs	r4, r4, #2
    302e:	42a6      	cmp	r6, r4
    3030:	d105      	bne.n	303e <__libc_init_array+0x2e>
    3032:	bd70      	pop	{r4, r5, r6, pc}
    3034:	00b3      	lsls	r3, r6, #2
    3036:	58eb      	ldr	r3, [r5, r3]
    3038:	4798      	blx	r3
    303a:	3601      	adds	r6, #1
    303c:	e7ee      	b.n	301c <__libc_init_array+0xc>
    303e:	00b3      	lsls	r3, r6, #2
    3040:	58eb      	ldr	r3, [r5, r3]
    3042:	4798      	blx	r3
    3044:	3601      	adds	r6, #1
    3046:	e7f2      	b.n	302e <__libc_init_array+0x1e>
    3048:	00003098 	.word	0x00003098
    304c:	00003098 	.word	0x00003098
    3050:	00003098 	.word	0x00003098
    3054:	0000309c 	.word	0x0000309c

00003058 <memcpy>:
    3058:	2300      	movs	r3, #0
    305a:	b510      	push	{r4, lr}
    305c:	429a      	cmp	r2, r3
    305e:	d100      	bne.n	3062 <memcpy+0xa>
    3060:	bd10      	pop	{r4, pc}
    3062:	5ccc      	ldrb	r4, [r1, r3]
    3064:	54c4      	strb	r4, [r0, r3]
    3066:	3301      	adds	r3, #1
    3068:	e7f8      	b.n	305c <memcpy+0x4>

0000306a <memset>:
    306a:	0003      	movs	r3, r0
    306c:	1882      	adds	r2, r0, r2
    306e:	4293      	cmp	r3, r2
    3070:	d100      	bne.n	3074 <memset+0xa>
    3072:	4770      	bx	lr
    3074:	7019      	strb	r1, [r3, #0]
    3076:	3301      	adds	r3, #1
    3078:	e7f9      	b.n	306e <memset+0x4>

0000307a <_usb_device_irq_bits>:
    307a:	0004 0008 0070 0080 0001 0100 0200          ....p.........

00003088 <_usb_endpoint_irq_bits>:
    3088:	0c03 6010                                   ...`

0000308c <_init>:
    308c:	b5f8      	push	{r3, r4, r5, r6, r7, lr}
    308e:	46c0      	nop			; (mov r8, r8)
    3090:	bcf8      	pop	{r3, r4, r5, r6, r7}
    3092:	bc08      	pop	{r3}
    3094:	469e      	mov	lr, r3
    3096:	4770      	bx	lr

00003098 <__init_array_start>:
    3098:	000000dd 	.word	0x000000dd

0000309c <_fini>:
    309c:	b5f8      	push	{r3, r4, r5, r6, r7, lr}
    309e:	46c0      	nop			; (mov r8, r8)
    30a0:	bcf8      	pop	{r3, r4, r5, r6, r7}
    30a2:	bc08      	pop	{r3}
    30a4:	469e      	mov	lr, r3
    30a6:	4770      	bx	lr

000030a8 <__fini_array_start>:
    30a8:	000000b5 	.word	0x000000b5
